
image.1.boot:     file format elf64-sparc


Disassembly of section .boot:

0000000000004000 <start>:
    4000:	10 80 00 08 	b  4020 <silo_ramdisk_size+0x4>
    4004:	01 00 00 00 	nop 
    4008:	48 64 72 53 	call  21920954 <ofw_mmu+0x21916afc>
    400c:	00 00 00 00 	illtrap  0
	...

0000000000004018 <silo_ramdisk_image>:
    4018:	00 00 00 00 	illtrap  0

000000000000401c <silo_ramdisk_size>:
    401c:	00 00 00 00 	illtrap  0
    4020:	8d 90 20 04 	wrpr  4, %pstate
    4024:	95 90 20 06 	wrpr  6, %cansave
    4028:	97 90 20 00 	wrpr  0, %canrestore
    402c:	9b 90 20 00 	wrpr  0, %otherwin
    4030:	99 90 20 07 	wrpr  7, %cleanwin
    4034:	1d 00 00 18 	sethi  %hi(0x6000), %sp
    4038:	9c 13 a0 60 	or  %sp, 0x60, %sp	! 6060 <initial_stack_top>
    403c:	9c 03 b8 01 	add  %sp, -2047, %sp
    4040:	21 00 00 27 	sethi  %hi(0x9c00), %l0
    4044:	a0 14 22 50 	or  %l0, 0x250, %l0	! 9e50 <ofw_cif>
    4048:	40 00 0f de 	call  7fc0 <ofw_init>
    404c:	d8 74 00 00 	stx  %o4, [ %l0 ]
    4050:	10 80 08 24 	b  60e0 <bootstrap>
    4054:	01 00 00 00 	nop 
    4058:	01 00 00 00 	nop 
    405c:	01 00 00 00 	nop 

0000000000004060 <initial_stack>:
	...

0000000000006060 <initial_stack_top>:
	...

00000000000060e0 <bootstrap>:
    60e0:	9d e3 bf 10 	save  %sp, -240, %sp
    60e4:	11 00 00 24 	sethi  %hi(0x9000), %o0
    60e8:	90 02 00 04 	add  %o0, %g4, %o0
    60ec:	40 00 07 a5 	call  7f80 <ofw_find_device>
    60f0:	90 02 21 58 	add  %o0, 0x158, %o0
    60f4:	13 00 00 24 	sethi  %hi(0x9000), %o1
    60f8:	92 02 40 04 	add  %o1, %g4, %o1
    60fc:	a0 07 a7 bf 	add  %fp, 0x7bf, %l0
    6100:	91 32 20 00 	srl  %o0, 0, %o0
    6104:	92 02 61 60 	add  %o1, 0x160, %o1
    6108:	94 10 00 10 	mov  %l0, %o2
    610c:	40 00 07 3d 	call  7e00 <ofw_get_property>
    6110:	96 10 20 40 	mov  0x40, %o3
    6114:	80 a2 20 00 	cmp  %o0, 0
    6118:	04 40 01 e7 	ble,pn   %icc, 68b4 <bootstrap+0x7d4>
    611c:	13 00 00 24 	sethi  %hi(0x9000), %o1
    6120:	92 02 40 04 	add  %o1, %g4, %o1
    6124:	90 10 00 10 	mov  %l0, %o0
    6128:	40 00 04 4e 	call  7260 <strcmp>
    612c:	92 02 61 a8 	add  %o1, 0x1a8, %o1
    6130:	80 a2 20 00 	cmp  %o0, 0
    6134:	02 48 01 90 	be  %icc, 6774 <bootstrap+0x694>
    6138:	35 00 00 26 	sethi  %hi(0x9800), %i2
    613c:	33 00 00 25 	sethi  %hi(0x9400), %i1
    6140:	82 06 40 04 	add  %i1, %g4, %g1
    6144:	84 10 20 0a 	mov  0xa, %g2
    6148:	c4 28 63 a9 	stb  %g2, [ %g1 + 0x3a9 ]
    614c:	35 00 00 26 	sethi  %hi(0x9800), %i2
    6150:	90 06 80 04 	add  %i2, %g4, %o0
    6154:	40 00 02 0b 	call  6980 <init_components>
    6158:	90 02 20 e0 	add  %o0, 0xe0, %o0
    615c:	39 00 00 26 	sethi  %hi(0x9800), %i4
    6160:	90 07 00 04 	add  %i4, %g4, %o0
    6164:	40 00 0a c7 	call  8c80 <ofw_get_physmem_start>
    6168:	90 02 22 00 	add  %o0, 0x200, %o0
    616c:	80 a2 20 00 	cmp  %o0, 0
    6170:	22 40 01 90 	be,a,pn   %icc, 67b0 <bootstrap+0x6d0>
    6174:	11 00 00 24 	sethi  %hi(0x9000), %o0
    6178:	11 00 00 27 	sethi  %hi(0x9c00), %o0
    617c:	90 02 00 04 	add  %o0, %g4, %o0
    6180:	40 00 09 18 	call  85e0 <ofw_memmap>
    6184:	90 02 20 10 	add  %o0, 0x10, %o0
    6188:	80 a2 20 00 	cmp  %o0, 0
    618c:	02 40 01 96 	be,pn   %icc, 67e4 <bootstrap+0x704>
    6190:	11 00 00 24 	sethi  %hi(0x9000), %o0
    6194:	82 07 00 04 	add  %i4, %g4, %g1
    6198:	c2 00 64 10 	ld  [ %g1 + 0x410 ], %g1
    619c:	80 a0 60 00 	cmp  %g1, 0
    61a0:	02 40 01 9c 	be,pn   %icc, 6810 <bootstrap+0x730>
    61a4:	11 00 00 24 	sethi  %hi(0x9000), %o0
    61a8:	31 00 00 10 	sethi  %hi(0x4000), %i0
    61ac:	82 06 00 04 	add  %i0, %g4, %g1
    61b0:	c6 00 60 18 	ld  [ %g1 + 0x18 ], %g3
    61b4:	80 a0 e0 00 	cmp  %g3, 0
    61b8:	12 40 01 a1 	bne,pn   %icc, 683c <bootstrap+0x75c>
    61bc:	84 07 00 04 	add  %i4, %g4, %g2
    61c0:	11 00 00 24 	sethi  %hi(0x9000), %o0
    61c4:	90 02 00 04 	add  %o0, %g4, %o0
    61c8:	40 00 02 ae 	call  6c80 <printf>
    61cc:	90 02 22 50 	add  %o0, 0x250, %o0
    61d0:	a2 07 00 04 	add  %i4, %g4, %l1
    61d4:	d2 04 64 10 	ld  [ %l1 + 0x410 ], %o1
    61d8:	d4 5c 62 00 	ldx  [ %l1 + 0x200 ], %o2
    61dc:	11 00 00 24 	sethi  %hi(0x9000), %o0
    61e0:	90 02 00 04 	add  %o0, %g4, %o0
    61e4:	93 32 60 14 	srl  %o1, 0x14, %o1
    61e8:	40 00 02 a6 	call  6c80 <printf>
    61ec:	90 02 22 60 	add  %o0, 0x260, %o0
    61f0:	11 00 00 24 	sethi  %hi(0x9000), %o0
    61f4:	90 02 00 04 	add  %o0, %g4, %o0
    61f8:	40 00 02 a2 	call  6c80 <printf>
    61fc:	90 02 22 80 	add  %o0, 0x280, %o0
    6200:	11 00 00 24 	sethi  %hi(0x9000), %o0
    6204:	90 02 00 04 	add  %o0, %g4, %o0
    6208:	90 02 22 98 	add  %o0, 0x298, %o0
    620c:	40 00 02 9d 	call  6c80 <printf>
    6210:	13 00 10 00 	sethi  %hi(0x400000), %o1
    6214:	11 00 00 24 	sethi  %hi(0x9000), %o0
    6218:	a8 04 62 00 	add  %l1, 0x200, %l4
    621c:	90 02 00 04 	add  %o0, %g4, %o0
    6220:	21 00 00 26 	sethi  %hi(0x9800), %l0
    6224:	90 02 22 b8 	add  %o0, 0x2b8, %o0
    6228:	92 10 00 14 	mov  %l4, %o1
    622c:	40 00 02 95 	call  6c80 <printf>
    6230:	a0 04 00 04 	add  %l0, %g4, %l0
    6234:	a0 04 20 f8 	add  %l0, 0xf8, %l0
    6238:	3b 00 00 24 	sethi  %hi(0x9000), %i5
    623c:	ba 07 40 04 	add  %i5, %g4, %i5
    6240:	d2 5c 3f f0 	ldx  [ %l0 + -16 ], %o1
    6244:	d4 5c 3f e8 	ldx  [ %l0 + -24 ], %o2
    6248:	d6 5c 00 00 	ldx  [ %l0 ], %o3
    624c:	ba 07 62 d8 	add  %i5, 0x2d8, %i5
    6250:	90 10 00 1d 	mov  %i5, %o0
    6254:	c0 24 62 08 	clr  [ %l1 + 0x208 ]
    6258:	40 00 02 8a 	call  6c80 <printf>
    625c:	2f 00 00 0f 	sethi  %hi(0x3c00), %l7
    6260:	ae 15 e3 ff 	or  %l7, 0x3ff, %l7	! 3fff <start-0x1>
    6264:	a4 10 20 01 	mov  1, %l2
    6268:	a2 10 20 00 	clr  %l1
    626c:	2d 3f ff f0 	sethi  %hi(0xffffc000), %l6
    6270:	a2 04 40 17 	add  %l1, %l7, %l1
    6274:	80 a4 a0 01 	cmp  %l2, 1
    6278:	aa 10 00 14 	mov  %l4, %l5
    627c:	37 00 10 00 	sethi  %hi(0x400000), %i3
    6280:	02 40 00 1e 	be,pn   %icc, 62f8 <bootstrap+0x218>
    6284:	a2 0c 40 16 	and  %l1, %l6, %l1
    6288:	c2 05 20 08 	ld  [ %l4 + 8 ], %g1
    628c:	80 a0 60 20 	cmp  %g1, 0x20
    6290:	02 40 00 1f 	be,pn   %icc, 630c <bootstrap+0x22c>
    6294:	83 30 60 00 	srl  %g1, 0, %g1
    6298:	c4 5c 00 00 	ldx  [ %l0 ], %g2
    629c:	83 28 70 04 	sllx  %g1, 4, %g1
    62a0:	82 05 40 01 	add  %l5, %g1, %g1
    62a4:	c4 20 60 18 	st  %g2, [ %g1 + 0x18 ]
    62a8:	e6 05 60 08 	ld  [ %l5 + 8 ], %l3
    62ac:	87 34 60 00 	srl  %l1, 0, %g3
    62b0:	86 00 c0 1b 	add  %g3, %i3, %g3
    62b4:	a6 04 e0 01 	inc  %l3
    62b8:	c6 70 60 10 	stx  %g3, [ %g1 + 0x10 ]
    62bc:	e6 25 60 08 	st  %l3, [ %l5 + 8 ]
    62c0:	80 a4 a0 08 	cmp  %l2, 8
    62c4:	14 40 00 17 	bg,pn   %icc, 6320 <bootstrap+0x240>
    62c8:	a2 04 40 02 	add  %l1, %g2, %l1
    62cc:	a0 04 20 20 	add  %l0, 0x20, %l0
    62d0:	a4 04 a0 01 	inc  %l2
    62d4:	d2 5c 3f f0 	ldx  [ %l0 + -16 ], %o1
    62d8:	d4 5c 3f e8 	ldx  [ %l0 + -24 ], %o2
    62dc:	d6 5c 00 00 	ldx  [ %l0 ], %o3
    62e0:	40 00 02 68 	call  6c80 <printf>
    62e4:	90 10 00 1d 	mov  %i5, %o0
    62e8:	a2 04 40 17 	add  %l1, %l7, %l1
    62ec:	80 a4 a0 01 	cmp  %l2, 1
    62f0:	12 4f ff e6 	bne  %icc, 6288 <bootstrap+0x1a8>
    62f4:	a2 0c 40 16 	and  %l1, %l6, %l1
    62f8:	c2 5c 00 00 	ldx  [ %l0 ], %g1
    62fc:	a4 04 a0 01 	inc  %l2
    6300:	a2 04 40 01 	add  %l1, %g1, %l1
    6304:	10 6f ff f4 	b  %xcc, 62d4 <bootstrap+0x1f4>
    6308:	a0 04 20 20 	add  %l0, 0x20, %l0
    630c:	11 00 00 24 	sethi  %hi(0x9000), %o0
    6310:	90 02 00 04 	add  %o0, %g4, %o0
    6314:	40 00 02 5b 	call  6c80 <printf>
    6318:	90 02 22 f8 	add  %o0, 0x2f8, %o0
    631c:	e6 05 60 08 	ld  [ %l5 + 8 ], %l3
    6320:	b0 06 00 04 	add  %i0, %g4, %i0
    6324:	c2 06 20 18 	ld  [ %i0 + 0x18 ], %g1
    6328:	80 a0 60 00 	cmp  %g1, 0
    632c:	02 48 00 30 	be  %icc, 63ec <bootstrap+0x30c>
    6330:	25 00 00 24 	sethi  %hi(0x9000), %l2
    6334:	80 a4 e0 20 	cmp  %l3, 0x20
    6338:	02 40 01 68 	be,pn   %icc, 68d8 <bootstrap+0x7f8>
    633c:	82 07 00 04 	add  %i4, %g4, %g1
    6340:	c4 00 62 08 	ld  [ %g1 + 0x208 ], %g2
    6344:	21 00 00 10 	sethi  %hi(0x4000), %l0
    6348:	a0 04 00 04 	add  %l0, %g4, %l0
    634c:	c6 04 20 1c 	ld  [ %l0 + 0x1c ], %g3
    6350:	85 28 b0 04 	sllx  %g2, 4, %g2
    6354:	84 05 00 02 	add  %l4, %g2, %g2
    6358:	c6 20 a0 18 	st  %g3, [ %g2 + 0x18 ]
    635c:	05 00 00 0f 	sethi  %hi(0x3c00), %g2
    6360:	84 10 a3 ff 	or  %g2, 0x3ff, %g2	! 3fff <start-0x1>
    6364:	a2 04 40 02 	add  %l1, %g2, %l1
    6368:	05 3f ff f0 	sethi  %hi(0xffffc000), %g2
    636c:	c6 00 62 08 	ld  [ %g1 + 0x208 ], %g3
    6370:	a2 0c 40 02 	and  %l1, %g2, %l1
    6374:	85 34 e0 00 	srl  %l3, 0, %g2
    6378:	0b 00 10 00 	sethi  %hi(0x400000), %g5
    637c:	ab 34 60 00 	srl  %l1, 0, %l5
    6380:	85 28 b0 04 	sllx  %g2, 4, %g2
    6384:	11 00 00 24 	sethi  %hi(0x9000), %o0
    6388:	aa 05 40 05 	add  %l5, %g5, %l5
    638c:	84 05 00 02 	add  %l4, %g2, %g2
    6390:	90 02 00 04 	add  %o0, %g4, %o0
    6394:	86 00 e0 01 	inc  %g3
    6398:	ea 70 a0 10 	stx  %l5, [ %g2 + 0x10 ]
    639c:	90 02 23 38 	add  %o0, 0x338, %o0
    63a0:	40 00 02 38 	call  6c80 <printf>
    63a4:	c6 20 62 08 	st  %g3, [ %g1 + 0x208 ]
    63a8:	90 10 00 15 	mov  %l5, %o0
    63ac:	40 00 05 bd 	call  7aa0 <ofw_claim_phys>
    63b0:	d2 44 20 1c 	ldsw  [ %l0 + 0x1c ], %o1
    63b4:	96 10 3f ff 	mov  -1, %o3
    63b8:	92 10 00 15 	mov  %l5, %o1
    63bc:	90 10 00 15 	mov  %l5, %o0
    63c0:	40 00 05 a0 	call  7a40 <ofw_map>
    63c4:	d4 44 20 1c 	ldsw  [ %l0 + 0x1c ], %o2
    63c8:	d2 06 20 18 	ld  [ %i0 + 0x18 ], %o1
    63cc:	d4 04 20 1c 	ld  [ %l0 + 0x1c ], %o2
    63d0:	40 00 04 d4 	call  7720 <memmove>
    63d4:	90 10 00 15 	mov  %l5, %o0
    63d8:	90 04 80 04 	add  %l2, %g4, %o0
    63dc:	40 00 02 29 	call  6c80 <printf>
    63e0:	90 02 23 50 	add  %o0, 0x350, %o0
    63e4:	c2 04 20 1c 	ld  [ %l0 + 0x1c ], %g1
    63e8:	a2 04 40 01 	add  %l1, %g1, %l1
    63ec:	11 00 00 24 	sethi  %hi(0x9000), %o0
    63f0:	90 02 00 04 	add  %o0, %g4, %o0
    63f4:	90 02 23 58 	add  %o0, 0x358, %o0
    63f8:	40 00 02 22 	call  6c80 <printf>
    63fc:	b4 06 80 04 	add  %i2, %g4, %i2
    6400:	d2 5e a1 e0 	ldx  [ %i2 + 0x1e0 ], %o1
    6404:	2f 00 00 24 	sethi  %hi(0x9000), %l7
    6408:	ae 05 c0 04 	add  %l7, %g4, %l7
    640c:	90 05 e3 78 	add  %l7, 0x378, %o0
    6410:	40 00 02 1c 	call  6c80 <printf>
    6414:	ba 04 ff ff 	add  %l3, -1, %i5
    6418:	bb 3f 60 00 	sra  %i5, 0, %i5
    641c:	d2 5e a1 f8 	ldx  [ %i2 + 0x1f8 ], %o1
    6420:	bb 2f 70 04 	sllx  %i5, 4, %i5
    6424:	a0 07 00 04 	add  %i4, %g4, %l0
    6428:	ba 05 00 1d 	add  %l4, %i5, %i5
    642c:	2b 00 00 0f 	sethi  %hi(0x3c00), %l5
    6430:	aa 15 63 ff 	or  %l5, 0x3ff, %l5	! 3fff <start-0x1>
    6434:	c2 5c 22 00 	ldx  [ %l0 + 0x200 ], %g1
    6438:	d0 5f 60 10 	ldx  [ %i5 + 0x10 ], %o0
    643c:	2d 3f ff f0 	sethi  %hi(0xffffc000), %l6
    6440:	92 02 40 15 	add  %o1, %l5, %o1
    6444:	92 0a 40 16 	and  %o1, %l6, %o1
    6448:	90 02 00 01 	add  %o0, %g1, %o0
    644c:	40 00 05 95 	call  7aa0 <ofw_claim_phys>
    6450:	93 3a 60 00 	sra  %o1, 0, %o1
    6454:	d4 5e a1 f8 	ldx  [ %i2 + 0x1f8 ], %o2
    6458:	d2 5e a1 e8 	ldx  [ %i2 + 0x1e8 ], %o1
    645c:	40 00 0a f3 	call  9028 <memcpy>
    6460:	d0 5f 60 10 	ldx  [ %i5 + 0x10 ], %o0
    6464:	a4 04 80 04 	add  %l2, %g4, %l2
    6468:	40 00 02 06 	call  6c80 <printf>
    646c:	90 04 a3 50 	add  %l2, 0x350, %o0
    6470:	d2 5e a1 c0 	ldx  [ %i2 + 0x1c0 ], %o1
    6474:	90 05 e3 78 	add  %l7, 0x378, %o0
    6478:	40 00 02 02 	call  6c80 <printf>
    647c:	ba 04 ff fe 	add  %l3, -2, %i5
    6480:	bb 3f 60 00 	sra  %i5, 0, %i5
    6484:	d2 5e a1 d8 	ldx  [ %i2 + 0x1d8 ], %o1
    6488:	bb 2f 70 04 	sllx  %i5, 4, %i5
    648c:	ba 05 00 1d 	add  %l4, %i5, %i5
    6490:	c2 5c 22 00 	ldx  [ %l0 + 0x200 ], %g1
    6494:	d0 5f 60 10 	ldx  [ %i5 + 0x10 ], %o0
    6498:	92 02 40 15 	add  %o1, %l5, %o1
    649c:	92 0a 40 16 	and  %o1, %l6, %o1
    64a0:	90 02 00 01 	add  %o0, %g1, %o0
    64a4:	40 00 05 7f 	call  7aa0 <ofw_claim_phys>
    64a8:	93 3a 60 00 	sra  %o1, 0, %o1
    64ac:	d4 5e a1 d8 	ldx  [ %i2 + 0x1d8 ], %o2
    64b0:	d2 5e a1 c8 	ldx  [ %i2 + 0x1c8 ], %o1
    64b4:	40 00 0a dd 	call  9028 <memcpy>
    64b8:	d0 5f 60 10 	ldx  [ %i5 + 0x10 ], %o0
    64bc:	40 00 01 f1 	call  6c80 <printf>
    64c0:	90 04 a3 50 	add  %l2, 0x350, %o0
    64c4:	d2 5e a1 a0 	ldx  [ %i2 + 0x1a0 ], %o1
    64c8:	90 05 e3 78 	add  %l7, 0x378, %o0
    64cc:	40 00 01 ed 	call  6c80 <printf>
    64d0:	ba 04 ff fd 	add  %l3, -3, %i5
    64d4:	bb 3f 60 00 	sra  %i5, 0, %i5
    64d8:	d2 5e a1 b8 	ldx  [ %i2 + 0x1b8 ], %o1
    64dc:	bb 2f 70 04 	sllx  %i5, 4, %i5
    64e0:	ba 05 00 1d 	add  %l4, %i5, %i5
    64e4:	c2 5c 22 00 	ldx  [ %l0 + 0x200 ], %g1
    64e8:	d0 5f 60 10 	ldx  [ %i5 + 0x10 ], %o0
    64ec:	92 02 40 15 	add  %o1, %l5, %o1
    64f0:	92 0a 40 16 	and  %o1, %l6, %o1
    64f4:	90 02 00 01 	add  %o0, %g1, %o0
    64f8:	40 00 05 6a 	call  7aa0 <ofw_claim_phys>
    64fc:	93 3a 60 00 	sra  %o1, 0, %o1
    6500:	d4 5e a1 b8 	ldx  [ %i2 + 0x1b8 ], %o2
    6504:	d2 5e a1 a8 	ldx  [ %i2 + 0x1a8 ], %o1
    6508:	40 00 0a c8 	call  9028 <memcpy>
    650c:	d0 5f 60 10 	ldx  [ %i5 + 0x10 ], %o0
    6510:	40 00 01 dc 	call  6c80 <printf>
    6514:	90 04 a3 50 	add  %l2, 0x350, %o0
    6518:	d2 5e a1 80 	ldx  [ %i2 + 0x180 ], %o1
    651c:	90 05 e3 78 	add  %l7, 0x378, %o0
    6520:	40 00 01 d8 	call  6c80 <printf>
    6524:	ba 04 ff fc 	add  %l3, -4, %i5
    6528:	bb 3f 60 00 	sra  %i5, 0, %i5
    652c:	d2 5e a1 98 	ldx  [ %i2 + 0x198 ], %o1
    6530:	bb 2f 70 04 	sllx  %i5, 4, %i5
    6534:	ba 05 00 1d 	add  %l4, %i5, %i5
    6538:	c2 5c 22 00 	ldx  [ %l0 + 0x200 ], %g1
    653c:	d0 5f 60 10 	ldx  [ %i5 + 0x10 ], %o0
    6540:	92 02 40 15 	add  %o1, %l5, %o1
    6544:	92 0a 40 16 	and  %o1, %l6, %o1
    6548:	90 02 00 01 	add  %o0, %g1, %o0
    654c:	40 00 05 55 	call  7aa0 <ofw_claim_phys>
    6550:	93 3a 60 00 	sra  %o1, 0, %o1
    6554:	d4 5e a1 98 	ldx  [ %i2 + 0x198 ], %o2
    6558:	d2 5e a1 88 	ldx  [ %i2 + 0x188 ], %o1
    655c:	40 00 0a b3 	call  9028 <memcpy>
    6560:	d0 5f 60 10 	ldx  [ %i5 + 0x10 ], %o0
    6564:	40 00 01 c7 	call  6c80 <printf>
    6568:	90 04 a3 50 	add  %l2, 0x350, %o0
    656c:	d2 5e a1 60 	ldx  [ %i2 + 0x160 ], %o1
    6570:	90 05 e3 78 	add  %l7, 0x378, %o0
    6574:	40 00 01 c3 	call  6c80 <printf>
    6578:	ba 04 ff fb 	add  %l3, -5, %i5
    657c:	bb 3f 60 00 	sra  %i5, 0, %i5
    6580:	d2 5e a1 78 	ldx  [ %i2 + 0x178 ], %o1
    6584:	bb 2f 70 04 	sllx  %i5, 4, %i5
    6588:	ba 05 00 1d 	add  %l4, %i5, %i5
    658c:	c2 5c 22 00 	ldx  [ %l0 + 0x200 ], %g1
    6590:	d0 5f 60 10 	ldx  [ %i5 + 0x10 ], %o0
    6594:	92 02 40 15 	add  %o1, %l5, %o1
    6598:	92 0a 40 16 	and  %o1, %l6, %o1
    659c:	90 02 00 01 	add  %o0, %g1, %o0
    65a0:	40 00 05 40 	call  7aa0 <ofw_claim_phys>
    65a4:	93 3a 60 00 	sra  %o1, 0, %o1
    65a8:	d4 5e a1 78 	ldx  [ %i2 + 0x178 ], %o2
    65ac:	d2 5e a1 68 	ldx  [ %i2 + 0x168 ], %o1
    65b0:	40 00 0a 9e 	call  9028 <memcpy>
    65b4:	d0 5f 60 10 	ldx  [ %i5 + 0x10 ], %o0
    65b8:	40 00 01 b2 	call  6c80 <printf>
    65bc:	90 04 a3 50 	add  %l2, 0x350, %o0
    65c0:	d2 5e a1 40 	ldx  [ %i2 + 0x140 ], %o1
    65c4:	90 05 e3 78 	add  %l7, 0x378, %o0
    65c8:	40 00 01 ae 	call  6c80 <printf>
    65cc:	ba 04 ff fa 	add  %l3, -6, %i5
    65d0:	bb 3f 60 00 	sra  %i5, 0, %i5
    65d4:	d2 5e a1 58 	ldx  [ %i2 + 0x158 ], %o1
    65d8:	bb 2f 70 04 	sllx  %i5, 4, %i5
    65dc:	ba 05 00 1d 	add  %l4, %i5, %i5
    65e0:	c2 5c 22 00 	ldx  [ %l0 + 0x200 ], %g1
    65e4:	d0 5f 60 10 	ldx  [ %i5 + 0x10 ], %o0
    65e8:	92 02 40 15 	add  %o1, %l5, %o1
    65ec:	92 0a 40 16 	and  %o1, %l6, %o1
    65f0:	90 02 00 01 	add  %o0, %g1, %o0
    65f4:	40 00 05 2b 	call  7aa0 <ofw_claim_phys>
    65f8:	93 3a 60 00 	sra  %o1, 0, %o1
    65fc:	d4 5e a1 58 	ldx  [ %i2 + 0x158 ], %o2
    6600:	d2 5e a1 48 	ldx  [ %i2 + 0x148 ], %o1
    6604:	40 00 0a 89 	call  9028 <memcpy>
    6608:	d0 5f 60 10 	ldx  [ %i5 + 0x10 ], %o0
    660c:	40 00 01 9d 	call  6c80 <printf>
    6610:	90 04 a3 50 	add  %l2, 0x350, %o0
    6614:	d2 5e a1 20 	ldx  [ %i2 + 0x120 ], %o1
    6618:	90 05 e3 78 	add  %l7, 0x378, %o0
    661c:	40 00 01 99 	call  6c80 <printf>
    6620:	ba 04 ff f9 	add  %l3, -7, %i5
    6624:	bb 3f 60 00 	sra  %i5, 0, %i5
    6628:	d2 5e a1 38 	ldx  [ %i2 + 0x138 ], %o1
    662c:	bb 2f 70 04 	sllx  %i5, 4, %i5
    6630:	ba 05 00 1d 	add  %l4, %i5, %i5
    6634:	c2 5c 22 00 	ldx  [ %l0 + 0x200 ], %g1
    6638:	d0 5f 60 10 	ldx  [ %i5 + 0x10 ], %o0
    663c:	92 02 40 15 	add  %o1, %l5, %o1
    6640:	92 0a 40 16 	and  %o1, %l6, %o1
    6644:	90 02 00 01 	add  %o0, %g1, %o0
    6648:	40 00 05 16 	call  7aa0 <ofw_claim_phys>
    664c:	93 3a 60 00 	sra  %o1, 0, %o1
    6650:	d4 5e a1 38 	ldx  [ %i2 + 0x138 ], %o2
    6654:	d2 5e a1 28 	ldx  [ %i2 + 0x128 ], %o1
    6658:	40 00 0a 74 	call  9028 <memcpy>
    665c:	d0 5f 60 10 	ldx  [ %i5 + 0x10 ], %o0
    6660:	40 00 01 88 	call  6c80 <printf>
    6664:	90 04 a3 50 	add  %l2, 0x350, %o0
    6668:	d2 5e a1 00 	ldx  [ %i2 + 0x100 ], %o1
    666c:	90 05 e3 78 	add  %l7, 0x378, %o0
    6670:	40 00 01 84 	call  6c80 <printf>
    6674:	a6 04 ff f8 	add  %l3, -8, %l3
    6678:	a7 3c e0 00 	sra  %l3, 0, %l3
    667c:	d2 5e a1 18 	ldx  [ %i2 + 0x118 ], %o1
    6680:	a7 2c f0 04 	sllx  %l3, 4, %l3
    6684:	a6 05 00 13 	add  %l4, %l3, %l3
    6688:	c2 5c 22 00 	ldx  [ %l0 + 0x200 ], %g1
    668c:	d0 5c e0 10 	ldx  [ %l3 + 0x10 ], %o0
    6690:	92 02 40 15 	add  %o1, %l5, %o1
    6694:	92 0a 40 16 	and  %o1, %l6, %o1
    6698:	90 02 00 01 	add  %o0, %g1, %o0
    669c:	40 00 05 01 	call  7aa0 <ofw_claim_phys>
    66a0:	93 3a 60 00 	sra  %o1, 0, %o1
    66a4:	d4 5e a1 18 	ldx  [ %i2 + 0x118 ], %o2
    66a8:	d2 5e a1 08 	ldx  [ %i2 + 0x108 ], %o1
    66ac:	40 00 0a 5f 	call  9028 <memcpy>
    66b0:	d0 5c e0 10 	ldx  [ %l3 + 0x10 ], %o0
    66b4:	40 00 01 73 	call  6c80 <printf>
    66b8:	90 04 a3 50 	add  %l2, 0x350, %o0
    66bc:	11 00 00 24 	sethi  %hi(0x9000), %o0
    66c0:	90 02 00 04 	add  %o0, %g4, %o0
    66c4:	40 00 01 6f 	call  6c80 <printf>
    66c8:	90 02 23 80 	add  %o0, 0x380, %o0
    66cc:	c2 5e a0 f8 	ldx  [ %i2 + 0xf8 ], %g1
    66d0:	d0 5c 22 00 	ldx  [ %l0 + 0x200 ], %o0
    66d4:	82 00 40 15 	add  %g1, %l5, %g1
    66d8:	ac 08 40 16 	and  %g1, %l6, %l6
    66dc:	27 00 10 00 	sethi  %hi(0x400000), %l3
    66e0:	93 3d a0 00 	sra  %l6, 0, %o1
    66e4:	40 00 04 ef 	call  7aa0 <ofw_claim_phys>
    66e8:	90 02 00 13 	add  %o0, %l3, %o0
    66ec:	d4 5e a0 f8 	ldx  [ %i2 + 0xf8 ], %o2
    66f0:	d2 5e a0 e8 	ldx  [ %i2 + 0xe8 ], %o1
    66f4:	40 00 0a 4d 	call  9028 <memcpy>
    66f8:	90 10 00 13 	mov  %l3, %o0
    66fc:	40 00 01 61 	call  6c80 <printf>
    6700:	90 04 a3 50 	add  %l2, 0x350, %o0
    6704:	b2 06 40 04 	add  %i1, %g4, %i1
    6708:	c2 0e 63 a9 	ldub  [ %i1 + 0x3a9 ], %g1
    670c:	80 a0 60 0a 	cmp  %g1, 0xa
    6710:	02 40 00 78 	be,pn   %icc, 68f0 <bootstrap+0x810>
    6714:	80 a0 60 14 	cmp  %g1, 0x14
    6718:	32 48 00 60 	bne,a   %icc, 6898 <bootstrap+0x7b8>
    671c:	11 00 00 24 	sethi  %hi(0x9000), %o0
    6720:	c6 5c 22 00 	ldx  [ %l0 + 0x200 ], %g3
    6724:	c2 5c 24 18 	ldx  [ %l0 + 0x418 ], %g1
    6728:	ca 04 24 20 	ld  [ %l0 + 0x420 ], %g5
    672c:	05 3f f0 00 	sethi  %hi(0xffc00000), %g2
    6730:	82 00 40 13 	add  %g1, %l3, %g1
    6734:	84 01 40 02 	add  %g5, %g2, %g2
    6738:	a6 00 c0 13 	add  %g3, %l3, %l3
    673c:	c4 24 24 20 	st  %g2, [ %l0 + 0x420 ]
    6740:	e6 74 22 00 	stx  %l3, [ %l0 + 0x200 ]
    6744:	c2 74 24 18 	stx  %g1, [ %l0 + 0x418 ]
    6748:	11 00 00 24 	sethi  %hi(0x9000), %o0
    674c:	90 02 00 04 	add  %o0, %g4, %o0
    6750:	40 00 01 4c 	call  6c80 <printf>
    6754:	90 02 23 d8 	add  %o0, 0x3d8, %o0
    6758:	b8 07 00 04 	add  %i4, %g4, %i4
    675c:	d2 5f 22 00 	ldx  [ %i4 + 0x200 ], %o1
    6760:	94 10 00 14 	mov  %l4, %o2
    6764:	92 12 60 01 	or  %o1, 1, %o1
    6768:	11 00 10 00 	sethi  %hi(0x400000), %o0
    676c:	40 00 0a 5d 	call  90e0 <jump_to_kernel>
    6770:	96 10 24 30 	mov  0x430, %o3
    6774:	33 00 00 25 	sethi  %hi(0x9400), %i1
    6778:	90 06 80 04 	add  %i2, %g4, %o0
    677c:	82 06 40 04 	add  %i1, %g4, %g1
    6780:	84 10 20 14 	mov  0x14, %g2
    6784:	90 02 20 e0 	add  %o0, 0xe0, %o0
    6788:	40 00 00 7e 	call  6980 <init_components>
    678c:	c4 28 63 a9 	stb  %g2, [ %g1 + 0x3a9 ]
    6790:	39 00 00 26 	sethi  %hi(0x9800), %i4
    6794:	90 07 00 04 	add  %i4, %g4, %o0
    6798:	40 00 09 3a 	call  8c80 <ofw_get_physmem_start>
    679c:	90 02 22 00 	add  %o0, 0x200, %o0
    67a0:	80 a2 20 00 	cmp  %o0, 0
    67a4:	32 4f fe 76 	bne,a   %icc, 617c <bootstrap+0x9c>
    67a8:	11 00 00 27 	sethi  %hi(0x9c00), %o0
    67ac:	11 00 00 24 	sethi  %hi(0x9000), %o0
    67b0:	90 02 00 04 	add  %o0, %g4, %o0
    67b4:	40 00 01 33 	call  6c80 <printf>
    67b8:	90 02 21 b0 	add  %o0, 0x1b0, %o0
    67bc:	40 00 0a 19 	call  9020 <halt>
    67c0:	01 00 00 00 	nop 
    67c4:	11 00 00 27 	sethi  %hi(0x9c00), %o0
    67c8:	90 02 00 04 	add  %o0, %g4, %o0
    67cc:	40 00 07 85 	call  85e0 <ofw_memmap>
    67d0:	90 02 20 10 	add  %o0, 0x10, %o0
    67d4:	80 a2 20 00 	cmp  %o0, 0
    67d8:	12 4f fe 70 	bne  %icc, 6198 <bootstrap+0xb8>
    67dc:	82 07 00 04 	add  %i4, %g4, %g1
    67e0:	11 00 00 24 	sethi  %hi(0x9000), %o0
    67e4:	90 02 00 04 	add  %o0, %g4, %o0
    67e8:	40 00 01 26 	call  6c80 <printf>
    67ec:	90 02 21 e0 	add  %o0, 0x1e0, %o0
    67f0:	40 00 0a 0c 	call  9020 <halt>
    67f4:	01 00 00 00 	nop 
    67f8:	82 07 00 04 	add  %i4, %g4, %g1
    67fc:	c2 00 64 10 	ld  [ %g1 + 0x410 ], %g1
    6800:	80 a0 60 00 	cmp  %g1, 0
    6804:	12 4f fe 6a 	bne  %icc, 61ac <bootstrap+0xcc>
    6808:	31 00 00 10 	sethi  %hi(0x4000), %i0
    680c:	11 00 00 24 	sethi  %hi(0x9000), %o0
    6810:	90 02 00 04 	add  %o0, %g4, %o0
    6814:	40 00 01 1b 	call  6c80 <printf>
    6818:	90 02 22 10 	add  %o0, 0x210, %o0
    681c:	40 00 0a 01 	call  9020 <halt>
    6820:	31 00 00 10 	sethi  %hi(0x4000), %i0
    6824:	82 06 00 04 	add  %i0, %g4, %g1
    6828:	c6 00 60 18 	ld  [ %g1 + 0x18 ], %g3
    682c:	80 a0 e0 00 	cmp  %g3, 0
    6830:	02 4f fe 65 	be  %icc, 61c4 <bootstrap+0xe4>
    6834:	11 00 00 24 	sethi  %hi(0x9000), %o0
    6838:	84 07 00 04 	add  %i4, %g4, %g2
    683c:	ca 58 a2 00 	ldx  [ %g2 + 0x200 ], %g5
    6840:	05 3f f0 00 	sethi  %hi(0xffc00000), %g2
    6844:	84 00 c0 02 	add  %g3, %g2, %g2
    6848:	84 00 80 05 	add  %g2, %g5, %g2
    684c:	91 30 a0 00 	srl  %g2, 0, %o0
    6850:	07 00 00 10 	sethi  %hi(0x4000), %g3
    6854:	86 00 c0 04 	add  %g3, %g4, %g3
    6858:	92 10 00 08 	mov  %o0, %o1
    685c:	96 10 3f ff 	mov  -1, %o3
    6860:	c4 20 60 18 	st  %g2, [ %g1 + 0x18 ]
    6864:	40 00 04 77 	call  7a40 <ofw_map>
    6868:	d4 40 e0 1c 	ldsw  [ %g3 + 0x1c ], %o2
    686c:	80 a2 20 00 	cmp  %o0, 0
    6870:	22 4f fe 55 	be,a   %icc, 61c4 <bootstrap+0xe4>
    6874:	11 00 00 24 	sethi  %hi(0x9000), %o0
    6878:	11 00 00 24 	sethi  %hi(0x9000), %o0
    687c:	90 02 00 04 	add  %o0, %g4, %o0
    6880:	40 00 01 00 	call  6c80 <printf>
    6884:	90 02 22 38 	add  %o0, 0x238, %o0
    6888:	40 00 09 e6 	call  9020 <halt>
    688c:	01 00 00 00 	nop 
    6890:	10 6f fe 4d 	b  %xcc, 61c4 <bootstrap+0xe4>
    6894:	11 00 00 24 	sethi  %hi(0x9000), %o0
    6898:	90 02 00 04 	add  %o0, %g4, %o0
    689c:	40 00 00 f9 	call  6c80 <printf>
    68a0:	90 02 23 c0 	add  %o0, 0x3c0, %o0
    68a4:	40 00 09 df 	call  9020 <halt>
    68a8:	01 00 00 00 	nop 
    68ac:	10 6f ff a8 	b  %xcc, 674c <bootstrap+0x66c>
    68b0:	11 00 00 24 	sethi  %hi(0x9000), %o0
    68b4:	11 00 00 24 	sethi  %hi(0x9000), %o0
    68b8:	90 02 00 04 	add  %o0, %g4, %o0
    68bc:	40 00 00 f1 	call  6c80 <printf>
    68c0:	90 02 21 70 	add  %o0, 0x170, %o0
    68c4:	33 00 00 25 	sethi  %hi(0x9400), %i1
    68c8:	82 06 40 04 	add  %i1, %g4, %g1
    68cc:	84 10 20 0a 	mov  0xa, %g2
    68d0:	10 6f fe 1f 	b  %xcc, 614c <bootstrap+0x6c>
    68d4:	c4 28 63 a9 	stb  %g2, [ %g1 + 0x3a9 ]
    68d8:	11 00 00 24 	sethi  %hi(0x9000), %o0
    68dc:	90 02 00 04 	add  %o0, %g4, %o0
    68e0:	40 00 00 e8 	call  6c80 <printf>
    68e4:	90 02 23 20 	add  %o0, 0x320, %o0
    68e8:	10 6f fe c2 	b  %xcc, 63f0 <bootstrap+0x310>
    68ec:	11 00 00 24 	sethi  %hi(0x9000), %o0
    68f0:	03 3f ff f0 	sethi  %hi(0xffffc000), %g1
    68f4:	d0 5c 22 00 	ldx  [ %l0 + 0x200 ], %o0
    68f8:	a2 04 40 15 	add  %l1, %l5, %l1
    68fc:	a2 08 40 11 	and  %g1, %l1, %l1
    6900:	a2 04 40 13 	add  %l1, %l3, %l1
    6904:	90 04 40 08 	add  %l1, %o0, %o0
    6908:	40 00 04 66 	call  7aa0 <ofw_claim_phys>
    690c:	13 00 00 80 	sethi  %hi(0x20000), %o1
    6910:	15 00 00 80 	sethi  %hi(0x20000), %o2
    6914:	96 10 3f ff 	mov  -1, %o3
    6918:	92 10 00 11 	mov  %l1, %o1
    691c:	40 00 04 49 	call  7a40 <ofw_map>
    6920:	90 10 00 11 	mov  %l1, %o0
    6924:	92 10 00 11 	mov  %l1, %o1
    6928:	40 00 03 ce 	call  7860 <balloc_init>
    692c:	90 05 24 18 	add  %l4, 0x418, %o0
    6930:	11 00 00 24 	sethi  %hi(0x9000), %o0
    6934:	90 02 00 04 	add  %o0, %g4, %o0
    6938:	40 00 00 d2 	call  6c80 <printf>
    693c:	90 02 23 98 	add  %o0, 0x398, %o0
    6940:	40 00 08 a0 	call  8bc0 <ofw_tree_build>
    6944:	01 00 00 00 	nop 
    6948:	d0 74 26 28 	stx  %o0, [ %l0 + 0x628 ]
    694c:	40 00 00 cd 	call  6c80 <printf>
    6950:	90 04 a3 50 	add  %l2, 0x350, %o0
    6954:	40 00 06 4b 	call  8280 <setup_palette>
    6958:	01 00 00 00 	nop 
    695c:	10 6f ff 7c 	b  %xcc, 674c <bootstrap+0x66c>
    6960:	11 00 00 24 	sethi  %hi(0x9000), %o0
    6964:	30 68 00 07 	b,a   %xcc, 6980 <init_components>
    6968:	01 00 00 00 	nop 
    696c:	01 00 00 00 	nop 
    6970:	01 00 00 00 	nop 
    6974:	01 00 00 00 	nop 
    6978:	01 00 00 00 	nop 
    697c:	01 00 00 00 	nop 

0000000000006980 <init_components>:
    6980:	81 c3 e0 08 	retl 
    6984:	01 00 00 00 	nop 
    6988:	30 68 00 06 	b,a   %xcc, 69a0 <init_components+0x20>
    698c:	01 00 00 00 	nop 
    6990:	01 00 00 00 	nop 
    6994:	01 00 00 00 	nop 
    6998:	01 00 00 00 	nop 
    699c:	01 00 00 00 	nop 
    69a0:	00 00 00 00 	illtrap  0
    69a4:	00 00 6d 14 	illtrap  0x6d14
    69a8:	00 00 00 00 	illtrap  0
    69ac:	00 00 6d 3c 	illtrap  0x6d3c
    69b0:	00 00 00 00 	illtrap  0
    69b4:	00 00 6d 3c 	illtrap  0x6d3c
    69b8:	00 00 00 00 	illtrap  0
    69bc:	00 00 6d 3c 	illtrap  0x6d3c
    69c0:	00 00 00 00 	illtrap  0
    69c4:	00 00 6d 3c 	illtrap  0x6d3c
    69c8:	00 00 00 00 	illtrap  0
    69cc:	00 00 6d 3c 	illtrap  0x6d3c
    69d0:	00 00 00 00 	illtrap  0
    69d4:	00 00 6d 3c 	illtrap  0x6d3c
    69d8:	00 00 00 00 	illtrap  0
    69dc:	00 00 6d 3c 	illtrap  0x6d3c
    69e0:	00 00 00 00 	illtrap  0
    69e4:	00 00 6d 3c 	illtrap  0x6d3c
    69e8:	00 00 00 00 	illtrap  0
    69ec:	00 00 6d 3c 	illtrap  0x6d3c
    69f0:	00 00 00 00 	illtrap  0
    69f4:	00 00 6d 3c 	illtrap  0x6d3c
    69f8:	00 00 00 00 	illtrap  0
    69fc:	00 00 6d 3c 	illtrap  0x6d3c
    6a00:	00 00 00 00 	illtrap  0
    6a04:	00 00 6d 3c 	illtrap  0x6d3c
    6a08:	00 00 00 00 	illtrap  0
    6a0c:	00 00 6d 3c 	illtrap  0x6d3c
    6a10:	00 00 00 00 	illtrap  0
    6a14:	00 00 6d 3c 	illtrap  0x6d3c
    6a18:	00 00 00 00 	illtrap  0
    6a1c:	00 00 6d 3c 	illtrap  0x6d3c
    6a20:	00 00 00 00 	illtrap  0
    6a24:	00 00 6d 3c 	illtrap  0x6d3c
    6a28:	00 00 00 00 	illtrap  0
    6a2c:	00 00 6d 3c 	illtrap  0x6d3c
    6a30:	00 00 00 00 	illtrap  0
    6a34:	00 00 6d 3c 	illtrap  0x6d3c
    6a38:	00 00 00 00 	illtrap  0
    6a3c:	00 00 6d 3c 	illtrap  0x6d3c
    6a40:	00 00 00 00 	illtrap  0
    6a44:	00 00 6d 3c 	illtrap  0x6d3c
    6a48:	00 00 00 00 	illtrap  0
    6a4c:	00 00 6d 3c 	illtrap  0x6d3c
    6a50:	00 00 00 00 	illtrap  0
    6a54:	00 00 6d 3c 	illtrap  0x6d3c
    6a58:	00 00 00 00 	illtrap  0
    6a5c:	00 00 6d 3c 	illtrap  0x6d3c
    6a60:	00 00 00 00 	illtrap  0
    6a64:	00 00 6d 3c 	illtrap  0x6d3c
    6a68:	00 00 00 00 	illtrap  0
    6a6c:	00 00 6d 3c 	illtrap  0x6d3c
    6a70:	00 00 00 00 	illtrap  0
    6a74:	00 00 6d 3c 	illtrap  0x6d3c
    6a78:	00 00 00 00 	illtrap  0
    6a7c:	00 00 6d 3c 	illtrap  0x6d3c
    6a80:	00 00 00 00 	illtrap  0
    6a84:	00 00 6d 3c 	illtrap  0x6d3c
    6a88:	00 00 00 00 	illtrap  0
    6a8c:	00 00 70 00 	illtrap  0x7000
    6a90:	00 00 00 00 	illtrap  0
    6a94:	00 00 6d 3c 	illtrap  0x6d3c
    6a98:	00 00 00 00 	illtrap  0
    6a9c:	00 00 6d 3c 	illtrap  0x6d3c
    6aa0:	00 00 00 00 	illtrap  0
    6aa4:	00 00 6d 3c 	illtrap  0x6d3c
    6aa8:	00 00 00 00 	illtrap  0
    6aac:	00 00 6d 3c 	illtrap  0x6d3c
    6ab0:	00 00 00 00 	illtrap  0
    6ab4:	00 00 6d 3c 	illtrap  0x6d3c
    6ab8:	00 00 00 00 	illtrap  0
    6abc:	00 00 6d 3c 	illtrap  0x6d3c
    6ac0:	00 00 00 00 	illtrap  0
    6ac4:	00 00 6d 3c 	illtrap  0x6d3c
    6ac8:	00 00 00 00 	illtrap  0
    6acc:	00 00 6d 3c 	illtrap  0x6d3c
    6ad0:	00 00 00 00 	illtrap  0
    6ad4:	00 00 6d 3c 	illtrap  0x6d3c
    6ad8:	00 00 00 00 	illtrap  0
    6adc:	00 00 6f b0 	illtrap  0x6fb0
    6ae0:	00 00 00 00 	illtrap  0
    6ae4:	00 00 6d 3c 	illtrap  0x6d3c
    6ae8:	00 00 00 00 	illtrap  0
    6aec:	00 00 6d 3c 	illtrap  0x6d3c
    6af0:	00 00 00 00 	illtrap  0
    6af4:	00 00 6d 3c 	illtrap  0x6d3c
    6af8:	00 00 00 00 	illtrap  0
    6afc:	00 00 71 c8 	illtrap  0x71c8
    6b00:	00 00 00 00 	illtrap  0
    6b04:	00 00 6d 78 	illtrap  0x6d78
    6b08:	00 00 00 00 	illtrap  0
    6b0c:	00 00 6d 3c 	illtrap  0x6d3c
    6b10:	00 00 00 00 	illtrap  0
    6b14:	00 00 6d 3c 	illtrap  0x6d3c
    6b18:	00 00 00 00 	illtrap  0
    6b1c:	00 00 6d 3c 	illtrap  0x6d3c
    6b20:	00 00 00 00 	illtrap  0
    6b24:	00 00 6d 3c 	illtrap  0x6d3c
    6b28:	00 00 00 00 	illtrap  0
    6b2c:	00 00 6d 3c 	illtrap  0x6d3c
    6b30:	00 00 00 00 	illtrap  0
    6b34:	00 00 70 50 	illtrap  0x7050
    6b38:	00 00 00 00 	illtrap  0
    6b3c:	00 00 6f 00 	illtrap  0x6f00
    6b40:	00 00 00 00 	illtrap  0
    6b44:	00 00 6d 3c 	illtrap  0x6d3c
    6b48:	00 00 00 00 	illtrap  0
    6b4c:	00 00 6d 3c 	illtrap  0x6d3c
    6b50:	00 00 00 00 	illtrap  0
    6b54:	00 00 6d 3c 	illtrap  0x6d3c
    6b58:	00 00 00 00 	illtrap  0
    6b5c:	00 00 6d 3c 	illtrap  0x6d3c
    6b60:	00 00 00 00 	illtrap  0
    6b64:	00 00 6d 3c 	illtrap  0x6d3c
    6b68:	00 00 00 00 	illtrap  0
    6b6c:	00 00 6d 3c 	illtrap  0x6d3c
    6b70:	00 00 00 00 	illtrap  0
    6b74:	00 00 6d 3c 	illtrap  0x6d3c
    6b78:	00 00 00 00 	illtrap  0
    6b7c:	00 00 6d 3c 	illtrap  0x6d3c
    6b80:	00 00 00 00 	illtrap  0
    6b84:	00 00 6d 3c 	illtrap  0x6d3c
    6b88:	00 00 00 00 	illtrap  0
    6b8c:	00 00 70 2c 	illtrap  0x702c
    6b90:	00 00 00 00 	illtrap  0
    6b94:	00 00 71 b0 	illtrap  0x71b0
    6b98:	00 00 00 00 	illtrap  0
    6b9c:	00 00 70 ec 	illtrap  0x70ec
    6ba0:	00 00 00 00 	illtrap  0
    6ba4:	00 00 6d 3c 	illtrap  0x6d3c
    6ba8:	00 00 00 00 	illtrap  0
    6bac:	00 00 6d 3c 	illtrap  0x6d3c
    6bb0:	00 00 00 00 	illtrap  0
    6bb4:	00 00 6d 3c 	illtrap  0x6d3c
    6bb8:	00 00 00 00 	illtrap  0
    6bbc:	00 00 6d 3c 	illtrap  0x6d3c
    6bc0:	00 00 00 00 	illtrap  0
    6bc4:	00 00 6d 3c 	illtrap  0x6d3c
    6bc8:	00 00 00 00 	illtrap  0
    6bcc:	00 00 6d 3c 	illtrap  0x6d3c
    6bd0:	00 00 00 00 	illtrap  0
    6bd4:	00 00 6d 3c 	illtrap  0x6d3c
    6bd8:	00 00 00 00 	illtrap  0
    6bdc:	00 00 6f dc 	illtrap  0x6fdc
    6be0:	00 00 00 00 	illtrap  0
    6be4:	00 00 6d 3c 	illtrap  0x6d3c
    6be8:	00 00 00 00 	illtrap  0
    6bec:	00 00 6d 3c 	illtrap  0x6d3c
    6bf0:	00 00 00 00 	illtrap  0
    6bf4:	00 00 6d 3c 	illtrap  0x6d3c
    6bf8:	00 00 00 00 	illtrap  0
    6bfc:	00 00 6d a4 	illtrap  0x6da4
    6c00:	00 00 00 00 	illtrap  0
    6c04:	00 00 6d a4 	illtrap  0x6da4
    6c08:	00 00 00 00 	illtrap  0
    6c0c:	00 00 6d 3c 	illtrap  0x6d3c
    6c10:	00 00 00 00 	illtrap  0
    6c14:	00 00 70 a0 	illtrap  0x70a0
    6c18:	00 00 00 00 	illtrap  0
    6c1c:	00 00 6d 3c 	illtrap  0x6d3c
    6c20:	00 00 00 00 	illtrap  0
    6c24:	00 00 6d 3c 	illtrap  0x6d3c
    6c28:	00 00 00 00 	illtrap  0
    6c2c:	00 00 6d 3c 	illtrap  0x6d3c
    6c30:	00 00 00 00 	illtrap  0
    6c34:	00 00 70 7c 	illtrap  0x707c
    6c38:	00 00 00 00 	illtrap  0
    6c3c:	00 00 6f 2c 	illtrap  0x6f2c

0000000000006c40 <puts>:
    6c40:	c2 4a 00 00 	ldsb  [ %o0 ], %g1
    6c44:	80 a0 60 00 	cmp  %g1, 0
    6c48:	92 10 20 00 	clr  %o1
    6c4c:	02 40 00 08 	be,pn   %icc, 6c6c <puts+0x2c>
    6c50:	82 10 00 08 	mov  %o0, %g1
    6c54:	c4 08 60 01 	ldub  [ %g1 + 1 ], %g2
    6c58:	85 28 a0 18 	sll  %g2, 0x18, %g2
    6c5c:	80 a0 a0 00 	cmp  %g2, 0
    6c60:	92 02 60 01 	inc  %o1
    6c64:	12 4f ff fc 	bne  %icc, 6c54 <puts+0x14>
    6c68:	82 00 60 01 	inc  %g1
    6c6c:	93 3a 60 00 	sra  %o1, 0, %o1
    6c70:	82 13 c0 00 	mov  %o7, %g1
    6c74:	40 00 08 cb 	call  8fa0 <write>
    6c78:	9e 10 40 00 	mov  %g1, %o7
    6c7c:	01 00 00 00 	nop 

0000000000006c80 <printf>:
    6c80:	9d e3 be f0 	save  %sp, -272, %sp
    6c84:	0b 00 00 00 	sethi  %hi(0), %g5
    6c88:	8a 11 60 00 	mov  %g5, %g5	! 0 <start-0x4000>
    6c8c:	03 00 00 1a 	sethi  %hi(0x6800), %g1
    6c90:	8b 29 70 20 	sllx  %g5, 0x20, %g5
    6c94:	8a 01 40 01 	add  %g5, %g1, %g5
    6c98:	07 00 00 25 	sethi  %hi(0x9400), %g3
    6c9c:	05 00 00 25 	sethi  %hi(0x9400), %g2
    6ca0:	03 00 00 25 	sethi  %hi(0x9400), %g1
    6ca4:	86 00 c0 04 	add  %g3, %g4, %g3
    6ca8:	84 00 80 04 	add  %g2, %g4, %g2
    6cac:	82 00 40 04 	add  %g1, %g4, %g1
    6cb0:	9a 07 a8 87 	add  %fp, 0x887, %o5
    6cb4:	fa 77 a8 a7 	stx  %i5, [ %fp + 0x8a7 ]
    6cb8:	f2 77 a8 87 	stx  %i1, [ %fp + 0x887 ]
    6cbc:	f4 77 a8 8f 	stx  %i2, [ %fp + 0x88f ]
    6cc0:	f6 77 a8 97 	stx  %i3, [ %fp + 0x897 ]
    6cc4:	f8 77 a8 9f 	stx  %i4, [ %fp + 0x89f ]
    6cc8:	da 77 a7 ef 	stx  %o5, [ %fp + 0x7ef ]
    6ccc:	a8 11 61 a0 	or  %g5, 0x1a0, %l4
    6cd0:	a0 00 e3 90 	add  %g3, 0x390, %l0
    6cd4:	ae 00 a0 29 	add  %g2, 0x29, %l7
    6cd8:	ac 00 60 28 	add  %g1, 0x28, %l6
    6cdc:	a2 10 20 00 	clr  %l1
    6ce0:	a6 07 a7 fe 	add  %fp, 0x7fe, %l3
    6ce4:	ba 07 a7 e6 	add  %fp, 0x7e6, %i5
    6ce8:	aa 07 a7 a7 	add  %fp, 0x7a7, %l5
    6cec:	83 3c 60 00 	sra  %l1, 0, %g1
    6cf0:	c2 0e 00 01 	ldub  [ %i0 + %g1 ], %g1
    6cf4:	85 28 60 18 	sll  %g1, 0x18, %g2
    6cf8:	85 38 a0 18 	sra  %g2, 0x18, %g2
    6cfc:	80 a0 a0 00 	cmp  %g2, 0
    6d00:	02 40 00 0f 	be,pn   %icc, 6d3c <printf+0xbc>
    6d04:	c2 2f a7 fe 	stb  %g1, [ %fp + 0x7fe ]
    6d08:	80 a0 a0 25 	cmp  %g2, 0x25
    6d0c:	02 40 00 0e 	be,pn   %icc, 6d44 <printf+0xc4>
    6d10:	a2 04 60 01 	inc  %l1
    6d14:	90 10 00 13 	mov  %l3, %o0
    6d18:	40 00 08 a2 	call  8fa0 <write>
    6d1c:	92 10 20 01 	mov  1, %o1
    6d20:	83 3c 60 00 	sra  %l1, 0, %g1
    6d24:	c2 0e 00 01 	ldub  [ %i0 + %g1 ], %g1
    6d28:	85 28 60 18 	sll  %g1, 0x18, %g2
    6d2c:	85 38 a0 18 	sra  %g2, 0x18, %g2
    6d30:	80 a0 a0 00 	cmp  %g2, 0
    6d34:	12 4f ff f5 	bne  %icc, 6d08 <printf+0x88>
    6d38:	c2 2f a7 fe 	stb  %g1, [ %fp + 0x7fe ]
    6d3c:	81 cf e0 08 	rett  %i7 + 8
    6d40:	01 00 00 00 	nop 
    6d44:	83 3c 60 00 	sra  %l1, 0, %g1
    6d48:	c2 0e 00 01 	ldub  [ %i0 + %g1 ], %g1
    6d4c:	84 00 7f db 	add  %g1, -37, %g2
    6d50:	86 08 a0 ff 	and  %g2, 0xff, %g3
    6d54:	80 a0 e0 53 	cmp  %g3, 0x53
    6d58:	c2 2f a7 fe 	stb  %g1, [ %fp + 0x7fe ]
    6d5c:	18 4f ff f8 	bgu  %icc, 6d3c <printf+0xbc>
    6d60:	a2 04 60 01 	inc  %l1
    6d64:	84 08 a0 ff 	and  %g2, 0xff, %g2
    6d68:	85 28 b0 03 	sllx  %g2, 3, %g2
    6d6c:	c2 5d 00 02 	ldx  [ %l4 + %g2 ], %g1
    6d70:	81 c0 40 00 	jmp  %g1
    6d74:	01 00 00 00 	nop 
    6d78:	82 10 00 17 	mov  %l7, %g1
    6d7c:	92 10 20 00 	clr  %o1
    6d80:	c4 08 40 00 	ldub  [ %g1 ], %g2
    6d84:	85 28 a0 18 	sll  %g2, 0x18, %g2
    6d88:	80 a0 a0 00 	cmp  %g2, 0
    6d8c:	92 02 60 01 	inc  %o1
    6d90:	12 4f ff fc 	bne  %icc, 6d80 <printf+0x100>
    6d94:	82 00 60 01 	inc  %g1
    6d98:	93 3a 60 00 	sra  %o1, 0, %o1
    6d9c:	40 00 08 81 	call  8fa0 <write>
    6da0:	90 10 00 16 	mov  %l6, %o0
    6da4:	c2 5f a7 ef 	ldx  [ %fp + 0x7ef ], %g1
    6da8:	e4 58 40 00 	ldx  [ %g1 ], %l2
    6dac:	91 34 b0 3c 	srlx  %l2, 0x3c, %o0
    6db0:	82 00 60 08 	add  %g1, 8, %g1
    6db4:	90 04 00 08 	add  %l0, %o0, %o0
    6db8:	92 10 20 01 	mov  1, %o1
    6dbc:	40 00 08 79 	call  8fa0 <write>
    6dc0:	c2 77 a7 ef 	stx  %g1, [ %fp + 0x7ef ]
    6dc4:	91 34 b0 38 	srlx  %l2, 0x38, %o0
    6dc8:	90 0a 20 0f 	and  %o0, 0xf, %o0
    6dcc:	90 04 00 08 	add  %l0, %o0, %o0
    6dd0:	40 00 08 74 	call  8fa0 <write>
    6dd4:	92 10 20 01 	mov  1, %o1
    6dd8:	91 34 b0 34 	srlx  %l2, 0x34, %o0
    6ddc:	90 0a 20 0f 	and  %o0, 0xf, %o0
    6de0:	90 04 00 08 	add  %l0, %o0, %o0
    6de4:	40 00 08 6f 	call  8fa0 <write>
    6de8:	92 10 20 01 	mov  1, %o1
    6dec:	91 34 b0 30 	srlx  %l2, 0x30, %o0
    6df0:	90 0a 20 0f 	and  %o0, 0xf, %o0
    6df4:	90 04 00 08 	add  %l0, %o0, %o0
    6df8:	40 00 08 6a 	call  8fa0 <write>
    6dfc:	92 10 20 01 	mov  1, %o1
    6e00:	91 34 b0 2c 	srlx  %l2, 0x2c, %o0
    6e04:	90 0a 20 0f 	and  %o0, 0xf, %o0
    6e08:	90 04 00 08 	add  %l0, %o0, %o0
    6e0c:	40 00 08 65 	call  8fa0 <write>
    6e10:	92 10 20 01 	mov  1, %o1
    6e14:	91 34 b0 28 	srlx  %l2, 0x28, %o0
    6e18:	90 0a 20 0f 	and  %o0, 0xf, %o0
    6e1c:	90 04 00 08 	add  %l0, %o0, %o0
    6e20:	40 00 08 60 	call  8fa0 <write>
    6e24:	92 10 20 01 	mov  1, %o1
    6e28:	91 34 b0 24 	srlx  %l2, 0x24, %o0
    6e2c:	90 0a 20 0f 	and  %o0, 0xf, %o0
    6e30:	90 04 00 08 	add  %l0, %o0, %o0
    6e34:	40 00 08 5b 	call  8fa0 <write>
    6e38:	92 10 20 01 	mov  1, %o1
    6e3c:	91 34 b0 20 	srlx  %l2, 0x20, %o0
    6e40:	90 0a 20 0f 	and  %o0, 0xf, %o0
    6e44:	90 04 00 08 	add  %l0, %o0, %o0
    6e48:	40 00 08 56 	call  8fa0 <write>
    6e4c:	92 10 20 01 	mov  1, %o1
    6e50:	91 34 b0 1c 	srlx  %l2, 0x1c, %o0
    6e54:	90 0a 20 0f 	and  %o0, 0xf, %o0
    6e58:	90 04 00 08 	add  %l0, %o0, %o0
    6e5c:	92 10 20 01 	mov  1, %o1
    6e60:	40 00 08 50 	call  8fa0 <write>
    6e64:	01 00 00 00 	nop 
    6e68:	91 34 b0 18 	srlx  %l2, 0x18, %o0
    6e6c:	90 0a 20 0f 	and  %o0, 0xf, %o0
    6e70:	90 04 00 08 	add  %l0, %o0, %o0
    6e74:	40 00 08 4b 	call  8fa0 <write>
    6e78:	92 10 20 01 	mov  1, %o1
    6e7c:	91 34 b0 14 	srlx  %l2, 0x14, %o0
    6e80:	90 0a 20 0f 	and  %o0, 0xf, %o0
    6e84:	90 04 00 08 	add  %l0, %o0, %o0
    6e88:	40 00 08 46 	call  8fa0 <write>
    6e8c:	92 10 20 01 	mov  1, %o1
    6e90:	91 34 b0 10 	srlx  %l2, 0x10, %o0
    6e94:	90 0a 20 0f 	and  %o0, 0xf, %o0
    6e98:	90 04 00 08 	add  %l0, %o0, %o0
    6e9c:	40 00 08 41 	call  8fa0 <write>
    6ea0:	92 10 20 01 	mov  1, %o1
    6ea4:	91 34 b0 0c 	srlx  %l2, 0xc, %o0
    6ea8:	90 0a 20 0f 	and  %o0, 0xf, %o0
    6eac:	90 04 00 08 	add  %l0, %o0, %o0
    6eb0:	92 10 20 01 	mov  1, %o1
    6eb4:	40 00 08 3b 	call  8fa0 <write>
    6eb8:	01 00 00 00 	nop 
    6ebc:	91 34 b0 08 	srlx  %l2, 8, %o0
    6ec0:	90 0a 20 0f 	and  %o0, 0xf, %o0
    6ec4:	90 04 00 08 	add  %l0, %o0, %o0
    6ec8:	40 00 08 36 	call  8fa0 <write>
    6ecc:	92 10 20 01 	mov  1, %o1
    6ed0:	91 34 b0 04 	srlx  %l2, 4, %o0
    6ed4:	90 0a 20 0f 	and  %o0, 0xf, %o0
    6ed8:	90 04 00 08 	add  %l0, %o0, %o0
    6edc:	92 10 20 01 	mov  1, %o1
    6ee0:	40 00 08 30 	call  8fa0 <write>
    6ee4:	01 00 00 00 	nop 
    6ee8:	90 0c a0 0f 	and  %l2, 0xf, %o0
    6eec:	90 04 00 08 	add  %l0, %o0, %o0
    6ef0:	40 00 08 2c 	call  8fa0 <write>
    6ef4:	92 10 20 01 	mov  1, %o1
    6ef8:	10 6f ff 7e 	b  %xcc, 6cf0 <printf+0x70>
    6efc:	83 3c 60 00 	sra  %l1, 0, %g1
    6f00:	82 10 00 17 	mov  %l7, %g1
    6f04:	92 10 20 00 	clr  %o1
    6f08:	c4 08 40 00 	ldub  [ %g1 ], %g2
    6f0c:	85 28 a0 18 	sll  %g2, 0x18, %g2
    6f10:	80 a0 a0 00 	cmp  %g2, 0
    6f14:	92 02 60 01 	inc  %o1
    6f18:	12 4f ff fc 	bne  %icc, 6f08 <printf+0x288>
    6f1c:	82 00 60 01 	inc  %g1
    6f20:	93 3a 60 00 	sra  %o1, 0, %o1
    6f24:	40 00 08 1f 	call  8fa0 <write>
    6f28:	90 10 00 16 	mov  %l6, %o0
    6f2c:	c4 5f a7 ef 	ldx  [ %fp + 0x7ef ], %g2
    6f30:	c2 58 80 00 	ldx  [ %g2 ], %g1
    6f34:	84 00 a0 08 	add  %g2, 8, %g2
    6f38:	c4 77 a7 ef 	stx  %g2, [ %fp + 0x7ef ]
    6f3c:	86 10 20 3f 	mov  0x3f, %g3
    6f40:	84 10 00 1d 	mov  %i5, %g2
    6f44:	8a 08 60 0f 	and  %g1, 0xf, %g5
    6f48:	ca 0c 00 05 	ldub  [ %l0 + %g5 ], %g5
    6f4c:	83 30 60 04 	srl  %g1, 4, %g1
    6f50:	ca 28 80 00 	stb  %g5, [ %g2 ]
    6f54:	80 a0 60 00 	cmp  %g1, 0
    6f58:	86 00 ff ff 	add  %g3, -1, %g3
    6f5c:	12 4f ff fa 	bne  %icc, 6f44 <printf+0x2c4>
    6f60:	84 00 bf ff 	add  %g2, -1, %g2
    6f64:	87 38 e0 00 	sra  %g3, 0, %g3
    6f68:	90 00 e0 01 	add  %g3, 1, %o0
    6f6c:	c0 2f a7 e7 	clrb  [ %fp + 0x7e7 ]
    6f70:	c4 4d 40 08 	ldsb  [ %l5 + %o0 ], %g2
    6f74:	90 05 40 08 	add  %l5, %o0, %o0
    6f78:	80 a0 a0 00 	cmp  %g2, 0
    6f7c:	92 10 20 00 	clr  %o1
    6f80:	02 40 00 9f 	be,pn   %icc, 71fc <printf+0x57c>
    6f84:	84 10 00 08 	mov  %o0, %g2
    6f88:	c2 08 a0 01 	ldub  [ %g2 + 1 ], %g1
    6f8c:	83 28 60 18 	sll  %g1, 0x18, %g1
    6f90:	80 a0 60 00 	cmp  %g1, 0
    6f94:	92 02 60 01 	inc  %o1
    6f98:	12 4f ff fc 	bne  %icc, 6f88 <printf+0x308>
    6f9c:	84 00 a0 01 	inc  %g2
    6fa0:	40 00 08 00 	call  8fa0 <write>
    6fa4:	93 3a 60 00 	sra  %o1, 0, %o1
    6fa8:	10 6f ff 52 	b  %xcc, 6cf0 <printf+0x70>
    6fac:	83 3c 60 00 	sra  %l1, 0, %g1
    6fb0:	82 10 00 17 	mov  %l7, %g1
    6fb4:	92 10 20 00 	clr  %o1
    6fb8:	c4 08 40 00 	ldub  [ %g1 ], %g2
    6fbc:	85 28 a0 18 	sll  %g2, 0x18, %g2
    6fc0:	80 a0 a0 00 	cmp  %g2, 0
    6fc4:	92 02 60 01 	inc  %o1
    6fc8:	12 4f ff fc 	bne  %icc, 6fb8 <printf+0x338>
    6fcc:	82 00 60 01 	inc  %g1
    6fd0:	93 3a 60 00 	sra  %o1, 0, %o1
    6fd4:	40 00 07 f3 	call  8fa0 <write>
    6fd8:	90 10 00 16 	mov  %l6, %o0
    6fdc:	c2 5f a7 ef 	ldx  [ %fp + 0x7ef ], %g1
    6fe0:	e4 58 40 00 	ldx  [ %g1 ], %l2
    6fe4:	91 34 b0 1c 	srlx  %l2, 0x1c, %o0
    6fe8:	90 0a 20 0f 	and  %o0, 0xf, %o0
    6fec:	82 00 60 08 	add  %g1, 8, %g1
    6ff0:	90 04 00 08 	add  %l0, %o0, %o0
    6ff4:	92 10 20 01 	mov  1, %o1
    6ff8:	10 6f ff 9a 	b  %xcc, 6e60 <printf+0x1e0>
    6ffc:	c2 77 a7 ef 	stx  %g1, [ %fp + 0x7ef ]
    7000:	82 10 00 17 	mov  %l7, %g1
    7004:	92 10 20 00 	clr  %o1
    7008:	c4 08 40 00 	ldub  [ %g1 ], %g2
    700c:	85 28 a0 18 	sll  %g2, 0x18, %g2
    7010:	80 a0 a0 00 	cmp  %g2, 0
    7014:	92 02 60 01 	inc  %o1
    7018:	12 4f ff fc 	bne  %icc, 7008 <printf+0x388>
    701c:	82 00 60 01 	inc  %g1
    7020:	93 3a 60 00 	sra  %o1, 0, %o1
    7024:	40 00 07 df 	call  8fa0 <write>
    7028:	90 10 00 16 	mov  %l6, %o0
    702c:	c2 5f a7 ef 	ldx  [ %fp + 0x7ef ], %g1
    7030:	e4 58 40 00 	ldx  [ %g1 ], %l2
    7034:	91 34 b0 04 	srlx  %l2, 4, %o0
    7038:	90 0a 20 0f 	and  %o0, 0xf, %o0
    703c:	82 00 60 08 	add  %g1, 8, %g1
    7040:	90 04 00 08 	add  %l0, %o0, %o0
    7044:	92 10 20 01 	mov  1, %o1
    7048:	10 6f ff a6 	b  %xcc, 6ee0 <printf+0x260>
    704c:	c2 77 a7 ef 	stx  %g1, [ %fp + 0x7ef ]
    7050:	82 10 00 17 	mov  %l7, %g1
    7054:	92 10 20 00 	clr  %o1
    7058:	c4 08 40 00 	ldub  [ %g1 ], %g2
    705c:	85 28 a0 18 	sll  %g2, 0x18, %g2
    7060:	80 a0 a0 00 	cmp  %g2, 0
    7064:	92 02 60 01 	inc  %o1
    7068:	12 4f ff fc 	bne  %icc, 7058 <printf+0x3d8>
    706c:	82 00 60 01 	inc  %g1
    7070:	93 3a 60 00 	sra  %o1, 0, %o1
    7074:	40 00 07 cb 	call  8fa0 <write>
    7078:	90 10 00 16 	mov  %l6, %o0
    707c:	c2 5f a7 ef 	ldx  [ %fp + 0x7ef ], %g1
    7080:	e4 58 40 00 	ldx  [ %g1 ], %l2
    7084:	91 34 b0 0c 	srlx  %l2, 0xc, %o0
    7088:	90 0a 20 0f 	and  %o0, 0xf, %o0
    708c:	82 00 60 08 	add  %g1, 8, %g1
    7090:	90 04 00 08 	add  %l0, %o0, %o0
    7094:	92 10 20 01 	mov  1, %o1
    7098:	10 6f ff 87 	b  %xcc, 6eb4 <printf+0x234>
    709c:	c2 77 a7 ef 	stx  %g1, [ %fp + 0x7ef ]
    70a0:	c2 5f a7 ef 	ldx  [ %fp + 0x7ef ], %g1
    70a4:	d0 58 40 00 	ldx  [ %g1 ], %o0
    70a8:	82 00 60 08 	add  %g1, 8, %g1
    70ac:	c2 77 a7 ef 	stx  %g1, [ %fp + 0x7ef ]
    70b0:	c2 4a 00 00 	ldsb  [ %o0 ], %g1
    70b4:	80 a0 60 00 	cmp  %g1, 0
    70b8:	92 10 20 00 	clr  %o1
    70bc:	02 47 ff b9 	be,pn   %icc, 6fa0 <printf+0x320>
    70c0:	82 10 00 08 	mov  %o0, %g1
    70c4:	c4 08 60 01 	ldub  [ %g1 + 1 ], %g2
    70c8:	85 28 a0 18 	sll  %g2, 0x18, %g2
    70cc:	80 a0 a0 00 	cmp  %g2, 0
    70d0:	92 02 60 01 	inc  %o1
    70d4:	12 4f ff fc 	bne  %icc, 70c4 <printf+0x444>
    70d8:	82 00 60 01 	inc  %g1
    70dc:	40 00 07 b1 	call  8fa0 <write>
    70e0:	93 3a 60 00 	sra  %o1, 0, %o1
    70e4:	10 6f ff 03 	b  %xcc, 6cf0 <printf+0x70>
    70e8:	83 3c 60 00 	sra  %l1, 0, %g1
    70ec:	c4 5f a7 ef 	ldx  [ %fp + 0x7ef ], %g2
    70f0:	c2 58 80 00 	ldx  [ %g2 ], %g1
    70f4:	84 00 a0 08 	add  %g2, 8, %g2
    70f8:	c4 77 a7 ef 	stx  %g2, [ %fp + 0x7ef ]
    70fc:	8a 10 00 1d 	mov  %i5, %g5
    7100:	9a 10 20 3f 	mov  0x3f, %o5
    7104:	87 30 60 00 	srl  %g1, 0, %g3
    7108:	99 28 f0 04 	sllx  %g3, 4, %o4
    710c:	85 28 f0 02 	sllx  %g3, 2, %g2
    7110:	84 23 00 02 	sub  %o4, %g2, %g2
    7114:	99 28 b0 04 	sllx  %g2, 4, %o4
    7118:	84 00 80 0c 	add  %g2, %o4, %g2
    711c:	99 28 b0 08 	sllx  %g2, 8, %o4
    7120:	84 00 80 0c 	add  %g2, %o4, %g2
    7124:	99 28 b0 10 	sllx  %g2, 0x10, %o4
    7128:	84 00 80 0c 	add  %g2, %o4, %g2
    712c:	84 00 80 03 	add  %g2, %g3, %g2
    7130:	85 30 b0 23 	srlx  %g2, 0x23, %g2
    7134:	99 28 a0 01 	sll  %g2, 1, %o4
    7138:	87 28 a0 03 	sll  %g2, 3, %g3
    713c:	86 03 00 03 	add  %o4, %g3, %g3
    7140:	82 20 40 03 	sub  %g1, %g3, %g1
    7144:	83 30 60 00 	srl  %g1, 0, %g1
    7148:	c6 0c 00 01 	ldub  [ %l0 + %g1 ], %g3
    714c:	80 a0 a0 00 	cmp  %g2, 0
    7150:	c6 29 40 00 	stb  %g3, [ %g5 ]
    7154:	82 10 00 02 	mov  %g2, %g1
    7158:	9a 03 7f ff 	add  %o5, -1, %o5
    715c:	12 4f ff ea 	bne  %icc, 7104 <printf+0x484>
    7160:	8a 01 7f ff 	add  %g5, -1, %g5
    7164:	9b 3b 60 00 	sra  %o5, 0, %o5
    7168:	90 03 60 01 	add  %o5, 1, %o0
    716c:	c0 2f a7 e7 	clrb  [ %fp + 0x7e7 ]
    7170:	c4 4d 40 08 	ldsb  [ %l5 + %o0 ], %g2
    7174:	90 05 40 08 	add  %l5, %o0, %o0
    7178:	80 a0 a0 00 	cmp  %g2, 0
    717c:	92 10 20 00 	clr  %o1
    7180:	02 40 00 1f 	be,pn   %icc, 71fc <printf+0x57c>
    7184:	84 10 00 08 	mov  %o0, %g2
    7188:	c2 08 a0 01 	ldub  [ %g2 + 1 ], %g1
    718c:	83 28 60 18 	sll  %g1, 0x18, %g1
    7190:	80 a0 60 00 	cmp  %g1, 0
    7194:	92 02 60 01 	inc  %o1
    7198:	12 4f ff fc 	bne  %icc, 7188 <printf+0x508>
    719c:	84 00 a0 01 	inc  %g2
    71a0:	40 00 07 80 	call  8fa0 <write>
    71a4:	93 3a 60 00 	sra  %o1, 0, %o1
    71a8:	10 6f fe d2 	b  %xcc, 6cf0 <printf+0x70>
    71ac:	83 3c 60 00 	sra  %l1, 0, %g1
    71b0:	c2 5f a7 ef 	ldx  [ %fp + 0x7ef ], %g1
    71b4:	c4 00 60 04 	ld  [ %g1 + 4 ], %g2
    71b8:	82 00 60 08 	add  %g1, 8, %g1
    71bc:	c4 2f a7 fe 	stb  %g2, [ %fp + 0x7fe ]
    71c0:	10 6f fe d5 	b  %xcc, 6d14 <printf+0x94>
    71c4:	c2 77 a7 ef 	stx  %g1, [ %fp + 0x7ef ]
    71c8:	82 10 00 17 	mov  %l7, %g1
    71cc:	92 10 20 00 	clr  %o1
    71d0:	c4 08 40 00 	ldub  [ %g1 ], %g2
    71d4:	85 28 a0 18 	sll  %g2, 0x18, %g2
    71d8:	80 a0 a0 00 	cmp  %g2, 0
    71dc:	92 02 60 01 	inc  %o1
    71e0:	12 4f ff fc 	bne  %icc, 71d0 <printf+0x550>
    71e4:	82 00 60 01 	inc  %g1
    71e8:	93 3a 60 00 	sra  %o1, 0, %o1
    71ec:	40 00 07 6d 	call  8fa0 <write>
    71f0:	90 10 00 16 	mov  %l6, %o0
    71f4:	10 6f fe ed 	b  %xcc, 6da8 <printf+0x128>
    71f8:	c2 5f a7 ef 	ldx  [ %fp + 0x7ef ], %g1
    71fc:	92 10 00 01 	mov  %g1, %o1
    7200:	40 00 07 68 	call  8fa0 <write>
    7204:	93 3a 60 00 	sra  %o1, 0, %o1
    7208:	10 6f fe ba 	b  %xcc, 6cf0 <printf+0x70>
    720c:	83 3c 60 00 	sra  %l1, 0, %g1
    7210:	30 68 00 04 	b,a   %xcc, 7220 <strlen>
    7214:	01 00 00 00 	nop 
    7218:	01 00 00 00 	nop 
    721c:	01 00 00 00 	nop 

0000000000007220 <strlen>:
    7220:	c2 4a 00 00 	ldsb  [ %o0 ], %g1
    7224:	80 a0 60 00 	cmp  %g1, 0
    7228:	86 10 00 08 	mov  %o0, %g3
    722c:	82 02 20 01 	add  %o0, 1, %g1
    7230:	02 40 00 08 	be,pn   %icc, 7250 <strlen+0x30>
    7234:	90 10 20 00 	clr  %o0
    7238:	c4 08 40 00 	ldub  [ %g1 ], %g2
    723c:	85 28 a0 18 	sll  %g2, 0x18, %g2
    7240:	80 a0 a0 00 	cmp  %g2, 0
    7244:	90 20 40 03 	sub  %g1, %g3, %o0
    7248:	12 4f ff fc 	bne  %icc, 7238 <strlen+0x18>
    724c:	82 00 60 01 	inc  %g1
    7250:	81 c3 e0 08 	retl 
    7254:	01 00 00 00 	nop 
    7258:	01 00 00 00 	nop 
    725c:	01 00 00 00 	nop 

0000000000007260 <strcmp>:
    7260:	c2 4a 00 00 	ldsb  [ %o0 ], %g1
    7264:	80 a0 60 00 	cmp  %g1, 0
    7268:	22 40 00 1a 	be,a,pn   %icc, 72d0 <strcmp+0x70>
    726c:	c2 4a 40 00 	ldsb  [ %o1 ], %g1
    7270:	c4 4a 40 00 	ldsb  [ %o1 ], %g2
    7274:	80 a0 a0 00 	cmp  %g2, 0
    7278:	02 40 00 1b 	be,pn   %icc, 72e4 <strcmp+0x84>
    727c:	80 a0 80 01 	cmp  %g2, %g1
    7280:	34 40 00 1d 	bg,a,pn   %icc, 72f4 <strcmp+0x94>
    7284:	90 10 3f ff 	mov  -1, %o0
    7288:	36 48 00 0d 	bge,a   %icc, 72bc <strcmp+0x5c>
    728c:	90 02 20 01 	inc  %o0
    7290:	10 68 00 16 	b  %xcc, 72e8 <strcmp+0x88>
    7294:	90 10 20 01 	mov  1, %o0
    7298:	c4 4a 40 00 	ldsb  [ %o1 ], %g2
    729c:	80 a0 a0 00 	cmp  %g2, 0
    72a0:	02 40 00 11 	be,pn   %icc, 72e4 <strcmp+0x84>
    72a4:	80 a0 40 02 	cmp  %g1, %g2
    72a8:	26 40 00 13 	bl,a,pn   %icc, 72f4 <strcmp+0x94>
    72ac:	90 10 3f ff 	mov  -1, %o0
    72b0:	34 40 00 0e 	bg,a,pn   %icc, 72e8 <strcmp+0x88>
    72b4:	90 10 20 01 	mov  1, %o0
    72b8:	90 02 20 01 	inc  %o0
    72bc:	c2 4a 00 00 	ldsb  [ %o0 ], %g1
    72c0:	80 a0 60 00 	cmp  %g1, 0
    72c4:	12 4f ff f5 	bne  %icc, 7298 <strcmp+0x38>
    72c8:	92 02 60 01 	inc  %o1
    72cc:	c2 4a 40 00 	ldsb  [ %o1 ], %g1
    72d0:	80 a0 60 00 	cmp  %g1, 0
    72d4:	12 40 00 07 	bne,pn   %icc, 72f0 <strcmp+0x90>
    72d8:	90 10 20 00 	clr  %o0
    72dc:	81 c3 e0 08 	retl 
    72e0:	91 3a 20 00 	sra  %o0, 0, %o0
    72e4:	90 10 20 01 	mov  1, %o0
    72e8:	81 c3 e0 08 	retl 
    72ec:	91 3a 20 00 	sra  %o0, 0, %o0
    72f0:	90 10 3f ff 	mov  -1, %o0
    72f4:	81 c3 e0 08 	retl 
    72f8:	91 3a 20 00 	sra  %o0, 0, %o0
    72fc:	01 00 00 00 	nop 

0000000000007300 <strncmp>:
    7300:	9d e3 bf 50 	save  %sp, -176, %sp
    7304:	c2 0e 00 00 	ldub  [ %i0 ], %g1
    7308:	83 28 60 18 	sll  %g1, 0x18, %g1
    730c:	85 38 60 18 	sra  %g1, 0x18, %g2
    7310:	80 a0 a0 00 	cmp  %g2, 0
    7314:	02 40 00 23 	be,pn   %icc, 73a0 <strncmp+0xa0>
    7318:	9a 10 20 00 	clr  %o5
    731c:	c6 4e 40 00 	ldsb  [ %i1 ], %g3
    7320:	80 a0 e0 00 	cmp  %g3, 0
    7324:	22 40 00 20 	be,a,pn   %icc, 73a4 <strncmp+0xa4>
    7328:	80 a6 80 0d 	cmp  %i2, %o5
    732c:	02 c6 80 25 	brz,pn   %i2, 73c0 <strncmp+0xc0>
    7330:	80 a0 80 03 	cmp  %g2, %g3
    7334:	26 40 00 2b 	bl,a,pn   %icc, 73e0 <strncmp+0xe0>
    7338:	b0 10 3f ff 	mov  -1, %i0
    733c:	04 48 00 0e 	ble  %icc, 7374 <strncmp+0x74>
    7340:	84 10 00 19 	mov  %i1, %g2
    7344:	10 68 00 25 	b  %xcc, 73d8 <strncmp+0xd8>
    7348:	b0 10 20 01 	mov  1, %i0
    734c:	ca 48 80 00 	ldsb  [ %g2 ], %g5
    7350:	80 a1 60 00 	cmp  %g5, 0
    7354:	02 40 00 11 	be,pn   %icc, 7398 <strncmp+0x98>
    7358:	80 a6 80 0d 	cmp  %i2, %o5
    735c:	08 60 00 23 	bleu,pn   %xcc, 73e8 <strncmp+0xe8>
    7360:	80 a0 c0 05 	cmp  %g3, %g5
    7364:	26 40 00 1f 	bl,a,pn   %icc, 73e0 <strncmp+0xe0>
    7368:	b0 10 3f ff 	mov  -1, %i0
    736c:	34 40 00 1b 	bg,a,pn   %icc, 73d8 <strncmp+0xd8>
    7370:	b0 10 20 01 	mov  1, %i0
    7374:	b0 06 20 01 	inc  %i0
    7378:	c2 0e 00 00 	ldub  [ %i0 ], %g1
    737c:	83 28 60 18 	sll  %g1, 0x18, %g1
    7380:	87 38 60 18 	sra  %g1, 0x18, %g3
    7384:	84 00 a0 01 	inc  %g2
    7388:	80 a0 e0 00 	cmp  %g3, 0
    738c:	9a 20 80 19 	sub  %g2, %i1, %o5
    7390:	12 4f ff ef 	bne  %icc, 734c <strncmp+0x4c>
    7394:	98 20 80 19 	sub  %g2, %i1, %o4
    7398:	9b 3b 20 00 	sra  %o4, 0, %o5
    739c:	b2 10 00 02 	mov  %g2, %i1
    73a0:	80 a6 80 0d 	cmp  %i2, %o5
    73a4:	22 60 00 08 	be,a,pn   %xcc, 73c4 <strncmp+0xc4>
    73a8:	b0 10 20 00 	clr  %i0
    73ac:	83 38 60 18 	sra  %g1, 0x18, %g1
    73b0:	c4 4e 40 00 	ldsb  [ %i1 ], %g2
    73b4:	80 a0 40 02 	cmp  %g1, %g2
    73b8:	12 40 00 05 	bne,pn   %icc, 73cc <strncmp+0xcc>
    73bc:	80 a0 60 00 	cmp  %g1, 0
    73c0:	b0 10 20 00 	clr  %i0
    73c4:	81 cf e0 08 	rett  %i7 + 8
    73c8:	91 3a 20 00 	sra  %o0, 0, %o0
    73cc:	22 40 00 05 	be,a,pn   %icc, 73e0 <strncmp+0xe0>
    73d0:	b0 10 3f ff 	mov  -1, %i0
    73d4:	b0 10 20 01 	mov  1, %i0
    73d8:	81 cf e0 08 	rett  %i7 + 8
    73dc:	91 3a 20 00 	sra  %o0, 0, %o0
    73e0:	81 cf e0 08 	rett  %i7 + 8
    73e4:	91 3a 20 00 	sra  %o0, 0, %o0
    73e8:	10 6f ff ee 	b  %xcc, 73a0 <strncmp+0xa0>
    73ec:	b2 10 00 02 	mov  %g2, %i1
    73f0:	30 68 00 04 	b,a   %xcc, 7400 <strncpy>
    73f4:	01 00 00 00 	nop 
    73f8:	01 00 00 00 	nop 
    73fc:	01 00 00 00 	nop 

0000000000007400 <strncpy>:
    7400:	02 c2 80 16 	brz,pn   %o2, 7458 <strncpy+0x58>
    7404:	86 10 3f ff 	mov  -1, %g3	! ffffffffffffffff <ofw_mmu+0xffffffffffff61a7>
    7408:	c2 0a 40 00 	ldub  [ %o1 ], %g1
    740c:	85 28 60 18 	sll  %g1, 0x18, %g2
    7410:	80 a0 a0 00 	cmp  %g2, 0
    7414:	c2 2a 00 00 	stb  %g1, [ %o0 ]
    7418:	84 10 00 08 	mov  %o0, %g2
    741c:	12 48 00 0a 	bne  %icc, 7444 <strncpy+0x44>
    7420:	82 02 60 01 	add  %o1, 1, %g1
    7424:	10 68 00 0f 	b  %xcc, 7460 <strncpy+0x60>
    7428:	01 00 00 00 	nop 
    742c:	8b 28 e0 18 	sll  %g3, 0x18, %g5
    7430:	c6 28 a0 01 	stb  %g3, [ %g2 + 1 ]
    7434:	80 a1 60 00 	cmp  %g5, 0
    7438:	82 00 60 01 	inc  %g1
    743c:	02 40 00 09 	be,pn   %icc, 7460 <strncpy+0x60>
    7440:	84 00 a0 01 	inc  %g2
    7444:	86 20 40 09 	sub  %g1, %o1, %g3
    7448:	80 a2 80 03 	cmp  %o2, %g3
    744c:	38 6f ff f8 	bgu,a   %xcc, 742c <strncpy+0x2c>
    7450:	c6 08 40 00 	ldub  [ %g1 ], %g3
    7454:	86 00 ff ff 	add  %g3, -1, %g3
    7458:	81 c3 e0 08 	retl 
    745c:	c0 2a 00 03 	clrb  [ %o0 + %g3 ]
    7460:	81 c3 e0 08 	retl 
    7464:	01 00 00 00 	nop 
    7468:	30 68 00 06 	b,a   %xcc, 7480 <atoi>
    746c:	01 00 00 00 	nop 
    7470:	01 00 00 00 	nop 
    7474:	01 00 00 00 	nop 
    7478:	01 00 00 00 	nop 
    747c:	01 00 00 00 	nop 

0000000000007480 <atoi>:
    7480:	9d e3 bf 50 	save  %sp, -176, %sp
    7484:	c2 0e 00 00 	ldub  [ %i0 ], %g1
    7488:	85 28 60 18 	sll  %g1, 0x18, %g2
    748c:	8b 38 a0 18 	sra  %g2, 0x18, %g5
    7490:	80 a1 60 30 	cmp  %g5, 0x30
    7494:	86 10 00 18 	mov  %i0, %g3
    7498:	96 10 20 0a 	mov  0xa, %o3
    749c:	02 40 00 5b 	be,pn   %icc, 7608 <atoi+0x188>
    74a0:	8a 10 20 0a 	mov  0xa, %g5
    74a4:	80 a0 a0 00 	cmp  %g2, 0
    74a8:	02 40 00 36 	be,pn   %icc, 7580 <atoi+0x100>
    74ac:	b0 10 20 00 	clr  %i0
    74b0:	80 a1 60 10 	cmp  %g5, 0x10
    74b4:	02 40 00 49 	be,pn   %icc, 75d8 <atoi+0x158>
    74b8:	80 a1 60 08 	cmp  %g5, 8
    74bc:	02 40 00 60 	be,pn   %icc, 763c <atoi+0x1bc>
    74c0:	9a 00 7f bf 	add  %g1, -65, %o5
    74c4:	10 68 00 15 	b  %xcc, 7518 <atoi+0x98>
    74c8:	01 00 00 00 	nop 
    74cc:	84 10 00 01 	mov  %g1, %g2
    74d0:	84 00 bf a9 	add  %g2, -87, %g2
    74d4:	82 00 7f c9 	add  %g1, -55, %g1
    74d8:	80 a3 60 00 	cmp  %o5, 0
    74dc:	83 38 60 00 	sra  %g1, 0, %g1
    74e0:	12 48 00 74 	bne  %icc, 76b0 <atoi+0x230>
    74e4:	85 38 a0 00 	sra  %g2, 0, %g2
    74e8:	80 a1 60 00 	cmp  %g5, 0
    74ec:	02 40 00 84 	be,pn   %icc, 76fc <atoi+0x27c>
    74f0:	01 00 00 00 	nop 
    74f4:	b0 4e 00 0b 	mulx  %i0, %o3, %i0
    74f8:	b0 00 80 18 	add  %g2, %i0, %i0
    74fc:	86 00 e0 01 	inc  %g3
    7500:	c2 08 c0 00 	ldub  [ %g3 ], %g1
    7504:	85 28 60 18 	sll  %g1, 0x18, %g2
    7508:	80 a0 a0 00 	cmp  %g2, 0
    750c:	02 40 00 7c 	be,pn   %icc, 76fc <atoi+0x27c>
    7510:	01 00 00 00 	nop 
    7514:	9a 00 7f bf 	add  %g1, -65, %o5
    7518:	9a 0b 60 ff 	and  %o5, 0xff, %o5
    751c:	8a 00 7f 9f 	add  %g1, -97, %g5
    7520:	80 a3 60 05 	cmp  %o5, 5
    7524:	8a 09 60 ff 	and  %g5, 0xff, %g5
    7528:	9a 10 20 00 	clr  %o5
    752c:	9b 65 20 01 	movleu  %icc, 1, %o5
    7530:	80 a1 60 05 	cmp  %g5, 5
    7534:	8a 10 20 00 	clr  %g5
    7538:	8b 65 20 01 	movleu  %icc, 1, %g5
    753c:	82 00 7f d0 	add  %g1, -48, %g1
    7540:	99 38 a0 18 	sra  %g2, 0x18, %o4
    7544:	80 91 40 0d 	orcc  %g5, %o5, %g0
    7548:	82 08 60 ff 	and  %g1, 0xff, %g1
    754c:	12 40 00 0d 	bne,pn   %icc, 7580 <atoi+0x100>
    7550:	98 03 3f d0 	add  %o4, -48, %o4
    7554:	80 a0 60 09 	cmp  %g1, 9
    7558:	18 4f ff dd 	bgu  %icc, 74cc <atoi+0x4c>
    755c:	83 38 a0 18 	sra  %g2, 0x18, %g1
    7560:	b0 4e 00 0b 	mulx  %i0, %o3, %i0
    7564:	86 00 e0 01 	inc  %g3
    7568:	c2 08 c0 00 	ldub  [ %g3 ], %g1
    756c:	85 28 60 18 	sll  %g1, 0x18, %g2
    7570:	99 3b 20 00 	sra  %o4, 0, %o4
    7574:	80 a0 a0 00 	cmp  %g2, 0
    7578:	12 4f ff e7 	bne  %icc, 7514 <atoi+0x94>
    757c:	b0 03 00 18 	add  %o4, %i0, %i0
    7580:	81 cf e0 08 	rett  %i7 + 8
    7584:	01 00 00 00 	nop 
    7588:	84 10 00 05 	mov  %g5, %g2
    758c:	82 00 7f 9f 	add  %g1, -97, %g1
    7590:	8a 01 7f c9 	add  %g5, -55, %g5
    7594:	84 00 bf a9 	add  %g2, -87, %g2
    7598:	80 a3 60 05 	cmp  %o5, 5
    759c:	82 08 60 ff 	and  %g1, 0xff, %g1
    75a0:	8b 39 60 00 	sra  %g5, 0, %g5
    75a4:	08 48 00 4d 	bleu  %icc, 76d8 <atoi+0x258>
    75a8:	85 38 a0 00 	sra  %g2, 0, %g2
    75ac:	80 a0 60 05 	cmp  %g1, 5
    75b0:	18 40 00 53 	bgu,pn   %icc, 76fc <atoi+0x27c>
    75b4:	01 00 00 00 	nop 
    75b8:	b0 4a c0 18 	mulx  %o3, %i0, %i0
    75bc:	b0 00 80 18 	add  %g2, %i0, %i0
    75c0:	86 00 e0 01 	inc  %g3
    75c4:	c2 08 c0 00 	ldub  [ %g3 ], %g1
    75c8:	85 28 60 18 	sll  %g1, 0x18, %g2
    75cc:	80 a0 a0 00 	cmp  %g2, 0
    75d0:	02 40 00 4b 	be,pn   %icc, 76fc <atoi+0x27c>
    75d4:	01 00 00 00 	nop 
    75d8:	8a 00 7f d0 	add  %g1, -48, %g5
    75dc:	8a 09 60 ff 	and  %g5, 0xff, %g5
    75e0:	9a 00 7f bf 	add  %g1, -65, %o5
    75e4:	80 a1 60 09 	cmp  %g5, 9
    75e8:	9a 0b 60 ff 	and  %o5, 0xff, %o5
    75ec:	18 4f ff e7 	bgu  %icc, 7588 <atoi+0x108>
    75f0:	8b 38 a0 18 	sra  %g2, 0x18, %g5
    75f4:	b0 4a c0 18 	mulx  %o3, %i0, %i0
    75f8:	8a 01 7f d0 	add  %g5, -48, %g5
    75fc:	8b 39 60 00 	sra  %g5, 0, %g5
    7600:	10 6f ff f0 	b  %xcc, 75c0 <atoi+0x140>
    7604:	b0 01 40 18 	add  %g5, %i0, %i0
    7608:	ca 4e 20 01 	ldsb  [ %i0 + 1 ], %g5
    760c:	80 a1 60 78 	cmp  %g5, 0x78
    7610:	02 40 00 35 	be,pn   %icc, 76e4 <atoi+0x264>
    7614:	96 10 20 08 	mov  8, %o3
    7618:	10 68 00 09 	b  %xcc, 763c <atoi+0x1bc>
    761c:	b0 10 20 00 	clr  %i0
    7620:	b0 03 00 18 	add  %o4, %i0, %i0
    7624:	86 00 e0 01 	inc  %g3
    7628:	c2 08 c0 00 	ldub  [ %g3 ], %g1
    762c:	85 28 60 18 	sll  %g1, 0x18, %g2
    7630:	80 a0 a0 00 	cmp  %g2, 0
    7634:	02 40 00 32 	be,pn   %icc, 76fc <atoi+0x27c>
    7638:	01 00 00 00 	nop 
    763c:	9a 00 7f bf 	add  %g1, -65, %o5
    7640:	9a 0b 60 ff 	and  %o5, 0xff, %o5
    7644:	8a 00 7f 9f 	add  %g1, -97, %g5
    7648:	80 a3 60 05 	cmp  %o5, 5
    764c:	8a 09 60 ff 	and  %g5, 0xff, %g5
    7650:	9a 10 20 00 	clr  %o5
    7654:	9b 65 20 01 	movleu  %icc, 1, %o5
    7658:	80 a1 60 05 	cmp  %g5, 5
    765c:	8a 10 20 00 	clr  %g5
    7660:	8b 65 20 01 	movleu  %icc, 1, %g5
    7664:	85 38 a0 18 	sra  %g2, 0x18, %g2
    7668:	82 00 7f d0 	add  %g1, -48, %g1
    766c:	98 00 bf d0 	add  %g2, -48, %o4
    7670:	80 91 40 0d 	orcc  %g5, %o5, %g0
    7674:	82 08 60 ff 	and  %g1, 0xff, %g1
    7678:	12 47 ff c2 	bne,pn   %icc, 7580 <atoi+0x100>
    767c:	99 3b 20 00 	sra  %o4, 0, %o4
    7680:	80 a0 a0 37 	cmp  %g2, 0x37
    7684:	14 47 ff bf 	bg,pn   %icc, 7580 <atoi+0x100>
    7688:	80 a0 60 09 	cmp  %g1, 9
    768c:	28 4f ff e5 	bleu,a   %icc, 7620 <atoi+0x1a0>
    7690:	b0 4e 00 0b 	mulx  %i0, %o3, %i0
    7694:	82 00 bf c9 	add  %g2, -55, %g1
    7698:	80 a3 60 00 	cmp  %o5, 0
    769c:	02 48 00 08 	be  %icc, 76bc <atoi+0x23c>
    76a0:	83 38 60 00 	sra  %g1, 0, %g1
    76a4:	b0 4e 00 0b 	mulx  %i0, %o3, %i0
    76a8:	10 6f ff df 	b  %xcc, 7624 <atoi+0x1a4>
    76ac:	b0 00 40 18 	add  %g1, %i0, %i0
    76b0:	b0 4e 00 0b 	mulx  %i0, %o3, %i0
    76b4:	10 6f ff 92 	b  %xcc, 74fc <atoi+0x7c>
    76b8:	b0 00 40 18 	add  %g1, %i0, %i0
    76bc:	80 a1 60 00 	cmp  %g5, 0
    76c0:	02 47 ff b0 	be,pn   %icc, 7580 <atoi+0x100>
    76c4:	84 00 bf a9 	add  %g2, -87, %g2
    76c8:	b0 4e 00 0b 	mulx  %i0, %o3, %i0
    76cc:	85 38 a0 00 	sra  %g2, 0, %g2
    76d0:	10 6f ff d5 	b  %xcc, 7624 <atoi+0x1a4>
    76d4:	b0 00 80 18 	add  %g2, %i0, %i0
    76d8:	b0 4a c0 18 	mulx  %o3, %i0, %i0
    76dc:	10 6f ff b9 	b  %xcc, 75c0 <atoi+0x140>
    76e0:	b0 01 40 18 	add  %g5, %i0, %i0
    76e4:	86 06 20 02 	add  %i0, 2, %g3
    76e8:	c2 08 c0 00 	ldub  [ %g3 ], %g1
    76ec:	96 10 20 10 	mov  0x10, %o3
    76f0:	8a 10 20 10 	mov  0x10, %g5
    76f4:	10 6f ff 6c 	b  %xcc, 74a4 <atoi+0x24>
    76f8:	85 28 60 18 	sll  %g1, 0x18, %g2
    76fc:	81 cf e0 08 	rett  %i7 + 8
    7700:	01 00 00 00 	nop 
    7704:	30 68 00 07 	b,a   %xcc, 7720 <memmove>
    7708:	01 00 00 00 	nop 
    770c:	01 00 00 00 	nop 
    7710:	01 00 00 00 	nop 
    7714:	01 00 00 00 	nop 
    7718:	01 00 00 00 	nop 
    771c:	01 00 00 00 	nop 

0000000000007720 <memmove>:
    7720:	9d e3 bf 50 	save  %sp, -176, %sp
    7724:	80 a6 00 19 	cmp  %i0, %i1
    7728:	82 10 00 18 	mov  %i0, %g1
    772c:	18 68 00 31 	bgu  %xcc, 77f0 <memmove+0xd0>
    7730:	84 10 00 19 	mov  %i1, %g2
    7734:	02 c6 80 2d 	brz,pn   %i2, 77e8 <memmove+0xc8>
    7738:	80 a6 a0 07 	cmp  %i2, 7
    773c:	86 06 60 08 	add  %i1, 8, %g3
    7740:	98 10 20 00 	clr  %o4
    7744:	99 67 30 01 	movgu  %xcc, 1, %o4
    7748:	8a 16 40 18 	or  %i1, %i0, %g5
    774c:	80 a6 00 03 	cmp  %i0, %g3
    7750:	9a 10 20 00 	clr  %o5
    7754:	86 06 20 08 	add  %i0, 8, %g3
    7758:	9b 67 30 01 	movgu  %xcc, 1, %o5
    775c:	8a 09 60 07 	and  %g5, 7, %g5
    7760:	80 a6 40 03 	cmp  %i1, %g3
    7764:	86 10 20 00 	clr  %g3
    7768:	87 79 64 01 	movre  %g5, 1, %g3
    776c:	8a 10 20 00 	clr  %g5
    7770:	8b 67 30 01 	movgu  %xcc, 1, %g5
    7774:	86 0b 00 03 	and  %o4, %g3, %g3
    7778:	8a 13 40 05 	or  %o5, %g5, %g5
    777c:	80 88 c0 05 	btst  %g3, %g5
    7780:	02 40 00 27 	be,pn   %icc, 781c <memmove+0xfc>
    7784:	86 06 bf ff 	add  %i2, -1, %g3
    7788:	9b 36 b0 03 	srlx  %i2, 3, %o5
    778c:	99 2b 70 03 	sllx  %o5, 3, %o4
    7790:	22 c3 00 10 	brz,a,pn   %o4, 77d0 <memmove+0xb0>
    7794:	ca 08 80 00 	ldub  [ %g2 ], %g5
    7798:	82 10 20 00 	clr  %g1
    779c:	84 10 20 00 	clr  %g2
    77a0:	ca 5e 40 01 	ldx  [ %i1 + %g1 ], %g5
    77a4:	84 00 a0 01 	inc  %g2
    77a8:	ca 76 00 01 	stx  %g5, [ %i0 + %g1 ]
    77ac:	80 a3 40 02 	cmp  %o5, %g2
    77b0:	18 6f ff fc 	bgu  %xcc, 77a0 <memmove+0x80>
    77b4:	82 00 60 08 	add  %g1, 8, %g1
    77b8:	80 a6 80 0c 	cmp  %i2, %o4
    77bc:	84 06 40 0c 	add  %i1, %o4, %g2
    77c0:	86 20 c0 0c 	sub  %g3, %o4, %g3
    77c4:	02 60 00 09 	be,pn   %xcc, 77e8 <memmove+0xc8>
    77c8:	82 06 00 0c 	add  %i0, %o4, %g1
    77cc:	ca 08 80 00 	ldub  [ %g2 ], %g5
    77d0:	86 00 ff ff 	add  %g3, -1, %g3
    77d4:	ca 28 40 00 	stb  %g5, [ %g1 ]
    77d8:	80 a0 ff ff 	cmp  %g3, -1
    77dc:	82 00 60 01 	inc  %g1
    77e0:	12 6f ff fb 	bne  %xcc, 77cc <memmove+0xac>
    77e4:	84 00 a0 01 	inc  %g2
    77e8:	81 cf e0 08 	rett  %i7 + 8
    77ec:	01 00 00 00 	nop 
    77f0:	02 f6 bf fe 	brz,pn   %i2, 77e8 <memmove+0xc8>
    77f4:	b2 06 40 1a 	add  %i1, %i2, %i1
    77f8:	82 06 00 1a 	add  %i0, %i2, %g1
    77fc:	c4 0e 7f ff 	ldub  [ %i1 + -1 ], %g2
    7800:	b4 06 bf ff 	add  %i2, -1, %i2
    7804:	c4 28 7f ff 	stb  %g2, [ %g1 + -1 ]
    7808:	b2 06 7f ff 	add  %i1, -1, %i1
    780c:	0a fe bf fc 	brnz  %i2, 77fc <memmove+0xdc>
    7810:	82 00 7f ff 	add  %g1, -1, %g1
    7814:	81 cf e0 08 	rett  %i7 + 8
    7818:	01 00 00 00 	nop 
    781c:	82 10 20 00 	clr  %g1	! 0 <start-0x4000>
    7820:	84 20 00 01 	neg  %g1, %g2
    7824:	c6 0e 40 02 	ldub  [ %i1 + %g2 ], %g3
    7828:	82 00 7f ff 	add  %g1, -1, %g1
    782c:	c6 2e 00 02 	stb  %g3, [ %i0 + %g2 ]
    7830:	84 00 40 1a 	add  %g1, %i2, %g2
    7834:	0a f8 bf fc 	brnz  %g2, 7824 <memmove+0x104>
    7838:	84 20 00 01 	neg  %g1, %g2
    783c:	81 cf e0 08 	rett  %i7 + 8
    7840:	01 00 00 00 	nop 
    7844:	30 68 00 07 	b,a   %xcc, 7860 <balloc_init>
    7848:	01 00 00 00 	nop 
    784c:	01 00 00 00 	nop 
    7850:	01 00 00 00 	nop 
    7854:	01 00 00 00 	nop 
    7858:	01 00 00 00 	nop 
    785c:	01 00 00 00 	nop 

0000000000007860 <balloc_init>:
    7860:	03 00 00 25 	sethi  %hi(0x9400), %g1
    7864:	82 00 40 04 	add  %g1, %g4, %g1
    7868:	d0 70 63 b0 	stx  %o0, [ %g1 + 0x3b0 ]
    786c:	d2 72 00 00 	stx  %o1, [ %o0 ]
    7870:	81 c3 e0 08 	retl 
    7874:	c0 72 20 08 	clrx  [ %o0 + 8 ]
    7878:	01 00 00 00 	nop 
    787c:	01 00 00 00 	nop 

0000000000007880 <balloc>:
    7880:	03 00 00 25 	sethi  %hi(0x9400), %g1
    7884:	82 00 40 04 	add  %g1, %g4, %g1
    7888:	c2 58 63 b0 	ldx  [ %g1 + 0x3b0 ], %g1
    788c:	c4 58 60 08 	ldx  [ %g1 + 8 ], %g2
    7890:	86 02 60 03 	add  %o1, 3, %g3
    7894:	86 08 ff fc 	and  %g3, -4, %g3
    7898:	84 00 bf ff 	add  %g2, -1, %g2
    789c:	84 00 80 03 	add  %g2, %g3, %g2
    78a0:	86 20 00 03 	neg  %g3
    78a4:	86 08 c0 02 	and  %g3, %g2, %g3
    78a8:	84 00 c0 08 	add  %g3, %o0, %g2
    78ac:	0b 00 00 80 	sethi  %hi(0x20000), %g5
    78b0:	80 a0 80 05 	cmp  %g2, %g5
    78b4:	90 10 20 00 	clr  %o0
    78b8:	18 60 00 04 	bgu,pn   %xcc, 78c8 <balloc+0x48>
    78bc:	ca 58 40 00 	ldx  [ %g1 ], %g5
    78c0:	c4 70 60 08 	stx  %g2, [ %g1 + 8 ]
    78c4:	90 00 c0 05 	add  %g3, %g5, %o0
    78c8:	81 c3 e0 08 	retl 
    78cc:	01 00 00 00 	nop 
    78d0:	30 68 00 04 	b,a   %xcc, 78e0 <ofw_call>
    78d4:	01 00 00 00 	nop 
    78d8:	01 00 00 00 	nop 
    78dc:	01 00 00 00 	nop 

00000000000078e0 <ofw_call>:
    78e0:	9d e3 be d0 	save  %sp, -304, %sp
    78e4:	82 07 a8 9f 	add  %fp, 0x89f, %g1
    78e8:	f8 77 a8 9f 	stx  %i4, [ %fp + 0x89f ]
    78ec:	fa 77 a8 a7 	stx  %i5, [ %fp + 0x8a7 ]
    78f0:	f0 77 a7 7f 	stx  %i0, [ %fp + 0x77f ]
    78f4:	f2 77 a7 87 	stx  %i1, [ %fp + 0x787 ]
    78f8:	f4 77 a7 8f 	stx  %i2, [ %fp + 0x78f ]
    78fc:	c2 77 a7 f7 	stx  %g1, [ %fp + 0x7f7 ]
    7900:	80 a6 60 00 	cmp  %i1, 0
    7904:	04 40 00 0f 	ble,pn   %icc, 7940 <ofw_call+0x60>
    7908:	90 07 a7 7f 	add  %fp, 0x77f, %o0
    790c:	9a 06 7f ff 	add  %i1, -1, %o5
    7910:	9b 33 60 00 	srl  %o5, 0, %o5
    7914:	9a 03 60 01 	inc  %o5
    7918:	9b 2b 70 03 	sllx  %o5, 3, %o5
    791c:	84 10 20 00 	clr  %g2
    7920:	ca 58 40 02 	ldx  [ %g1 + %g2 ], %g5
    7924:	86 02 00 02 	add  %o0, %g2, %g3
    7928:	84 00 a0 08 	add  %g2, 8, %g2
    792c:	80 a0 80 0d 	cmp  %g2, %o5
    7930:	12 6f ff fc 	bne  %xcc, 7920 <ofw_call+0x40>
    7934:	ca 70 e0 18 	stx  %g5, [ %g3 + 0x18 ]
    7938:	82 00 40 02 	add  %g1, %g2, %g1
    793c:	c2 77 a7 f7 	stx  %g1, [ %fp + 0x7f7 ]
    7940:	80 a6 a0 00 	cmp  %i2, 0
    7944:	04 40 00 25 	ble,pn   %icc, 79d8 <ofw_call+0xf8>
    7948:	01 00 00 00 	nop 
    794c:	82 10 20 00 	clr  %g1	! 0 <start-0x4000>
    7950:	a0 10 00 19 	mov  %i1, %l0
    7954:	84 00 40 10 	add  %g1, %l0, %g2
    7958:	85 38 a0 00 	sra  %g2, 0, %g2
    795c:	84 00 a0 02 	add  %g2, 2, %g2
    7960:	85 28 b0 03 	sllx  %g2, 3, %g2
    7964:	86 07 a7 ff 	add  %fp, 0x7ff, %g3
    7968:	84 00 c0 02 	add  %g3, %g2, %g2
    796c:	82 00 60 01 	inc  %g1
    7970:	80 a0 40 1a 	cmp  %g1, %i2
    7974:	12 4f ff f8 	bne  %icc, 7954 <ofw_call+0x74>
    7978:	c0 70 bf 88 	clrx  [ %g2 + -120 ]
    797c:	40 00 05 eb 	call  9128 <ofw>
    7980:	01 00 00 00 	nop 
    7984:	80 a6 a0 01 	cmp  %i2, 1
    7988:	04 40 00 0e 	ble,pn   %icc, 79c0 <ofw_call+0xe0>
    798c:	82 10 20 01 	mov  1, %g1
    7990:	84 04 00 01 	add  %l0, %g1, %g2
    7994:	85 38 a0 00 	sra  %g2, 0, %g2
    7998:	84 00 a0 02 	add  %g2, 2, %g2
    799c:	85 28 b0 03 	sllx  %g2, 3, %g2
    79a0:	86 07 a7 ff 	add  %fp, 0x7ff, %g3
    79a4:	84 00 c0 02 	add  %g3, %g2, %g2
    79a8:	c4 58 bf 88 	ldx  [ %g2 + -120 ], %g2
    79ac:	82 00 60 01 	inc  %g1
    79b0:	c4 76 c0 00 	stx  %g2, [ %i3 ]
    79b4:	80 a0 40 1a 	cmp  %g1, %i2
    79b8:	12 4f ff f6 	bne  %icc, 7990 <ofw_call+0xb0>
    79bc:	b6 06 e0 08 	add  %i3, 8, %i3
    79c0:	b2 06 60 02 	add  %i1, 2, %i1
    79c4:	82 07 a7 ff 	add  %fp, 0x7ff, %g1
    79c8:	b3 2e 70 03 	sllx  %i1, 3, %i1
    79cc:	b2 00 40 19 	add  %g1, %i1, %i1
    79d0:	81 cf e0 08 	rett  %i7 + 8
    79d4:	d0 5a 7f 88 	ldx  [ %o1 + -120 ], %o0
    79d8:	40 00 05 d4 	call  9128 <ofw>
    79dc:	b2 06 60 02 	add  %i1, 2, %i1
    79e0:	10 6f ff fa 	b  %xcc, 79c8 <ofw_call+0xe8>
    79e4:	82 07 a7 ff 	add  %fp, 0x7ff, %g1
    79e8:	30 68 00 06 	b,a   %xcc, 7a00 <ofw_quiesce>
    79ec:	01 00 00 00 	nop 
    79f0:	01 00 00 00 	nop 
    79f4:	01 00 00 00 	nop 
    79f8:	01 00 00 00 	nop 
    79fc:	01 00 00 00 	nop 

0000000000007a00 <ofw_quiesce>:
    7a00:	11 00 00 25 	sethi  %hi(0x9400), %o0
    7a04:	90 02 00 04 	add  %o0, %g4, %o0
    7a08:	90 02 20 30 	add  %o0, 0x30, %o0
    7a0c:	92 10 20 00 	clr  %o1
    7a10:	94 10 20 00 	clr  %o2
    7a14:	96 10 20 00 	clr  %o3
    7a18:	82 13 c0 00 	mov  %o7, %g1
    7a1c:	7f ff ff b1 	call  78e0 <ofw_call>
    7a20:	9e 10 40 00 	mov  %g1, %o7
    7a24:	01 00 00 00 	nop 
    7a28:	30 68 00 06 	b,a   %xcc, 7a40 <ofw_map>
    7a2c:	01 00 00 00 	nop 
    7a30:	01 00 00 00 	nop 
    7a34:	01 00 00 00 	nop 
    7a38:	01 00 00 00 	nop 
    7a3c:	01 00 00 00 	nop 

0000000000007a40 <ofw_map>:
    7a40:	9d e3 bf 20 	save  %sp, -224, %sp
    7a44:	03 00 00 27 	sethi  %hi(0x9c00), %g1
    7a48:	82 00 40 04 	add  %g1, %g4, %g1
    7a4c:	da 00 62 58 	ld  [ %g1 + 0x258 ], %o5
    7a50:	11 00 00 25 	sethi  %hi(0x9400), %o0
    7a54:	19 00 00 25 	sethi  %hi(0x9400), %o4
    7a58:	90 02 00 04 	add  %o0, %g4, %o0
    7a5c:	98 03 00 04 	add  %o4, %g4, %o4
    7a60:	83 36 20 00 	srl  %i0, 0, %g1
    7a64:	98 03 20 48 	add  %o4, 0x48, %o4
    7a68:	b1 36 30 20 	srlx  %i0, 0x20, %i0
    7a6c:	92 10 20 07 	mov  7, %o1
    7a70:	94 10 20 01 	mov  1, %o2
    7a74:	96 10 20 00 	clr  %o3
    7a78:	90 02 20 38 	add  %o0, 0x38, %o0
    7a7c:	f0 73 a8 c7 	stx  %i0, [ %sp + 0x8c7 ]
    7a80:	f6 73 a8 af 	stx  %i3, [ %sp + 0x8af ]
    7a84:	f4 73 a8 b7 	stx  %i2, [ %sp + 0x8b7 ]
    7a88:	f2 73 a8 bf 	stx  %i1, [ %sp + 0x8bf ]
    7a8c:	7f ff ff 95 	call  78e0 <ofw_call>
    7a90:	c2 73 a8 cf 	stx  %g1, [ %sp + 0x8cf ]
    7a94:	b1 3a 20 00 	sra  %o0, 0, %i0
    7a98:	81 cf e0 08 	rett  %i7 + 8
    7a9c:	01 00 00 00 	nop 

0000000000007aa0 <ofw_claim_phys>:
    7aa0:	9d e3 bf 20 	save  %sp, -224, %sp
    7aa4:	03 00 00 27 	sethi  %hi(0x9c00), %g1
    7aa8:	82 00 40 04 	add  %g1, %g4, %g1
    7aac:	da 00 62 40 	ld  [ %g1 + 0x240 ], %o5
    7ab0:	11 00 00 25 	sethi  %hi(0x9400), %o0
    7ab4:	19 00 00 25 	sethi  %hi(0x9400), %o4
    7ab8:	90 02 00 04 	add  %o0, %g4, %o0
    7abc:	98 03 00 04 	add  %o4, %g4, %o4
    7ac0:	83 36 20 00 	srl  %i0, 0, %g1
    7ac4:	90 02 20 38 	add  %o0, 0x38, %o0
    7ac8:	b1 36 30 20 	srlx  %i0, 0x20, %i0
    7acc:	98 03 20 50 	add  %o4, 0x50, %o4
    7ad0:	92 10 20 06 	mov  6, %o1
    7ad4:	94 10 20 03 	mov  3, %o2
    7ad8:	96 07 a7 ef 	add  %fp, 0x7ef, %o3
    7adc:	f2 73 a8 b7 	stx  %i1, [ %sp + 0x8b7 ]
    7ae0:	f0 73 a8 bf 	stx  %i0, [ %sp + 0x8bf ]
    7ae4:	c2 73 a8 c7 	stx  %g1, [ %sp + 0x8c7 ]
    7ae8:	7f ff ff 7e 	call  78e0 <ofw_call>
    7aec:	c0 73 a8 af 	clrx  [ %sp + 0x8af ]
    7af0:	22 ca 00 09 	brz,a   %o0, 7b14 <ofw_claim_phys+0x74>
    7af4:	f0 5f a7 ef 	ldx  [ %fp + 0x7ef ], %i0
    7af8:	11 00 00 25 	sethi  %hi(0x9400), %o0
    7afc:	90 02 00 04 	add  %o0, %g4, %o0
    7b00:	7f ff fc 50 	call  6c40 <puts>
    7b04:	90 02 20 58 	add  %o0, 0x58, %o0
    7b08:	40 00 05 46 	call  9020 <halt>
    7b0c:	01 00 00 00 	nop 
    7b10:	f0 5f a7 ef 	ldx  [ %fp + 0x7ef ], %i0
    7b14:	c2 5f a7 f7 	ldx  [ %fp + 0x7f7 ], %g1
    7b18:	b1 2e 30 20 	sllx  %i0, 0x20, %i0
    7b1c:	81 cf e0 08 	rett  %i7 + 8
    7b20:	90 12 00 01 	or  %o0, %g1, %o0
    7b24:	30 68 00 07 	b,a   %xcc, 7b40 <ofw_claim_virt>
    7b28:	01 00 00 00 	nop 
    7b2c:	01 00 00 00 	nop 
    7b30:	01 00 00 00 	nop 
    7b34:	01 00 00 00 	nop 
    7b38:	01 00 00 00 	nop 
    7b3c:	01 00 00 00 	nop 

0000000000007b40 <ofw_claim_virt>:
    7b40:	9d e3 bf 20 	save  %sp, -224, %sp
    7b44:	03 00 00 27 	sethi  %hi(0x9c00), %g1
    7b48:	82 00 40 04 	add  %g1, %g4, %g1
    7b4c:	11 00 00 25 	sethi  %hi(0x9400), %o0
    7b50:	19 00 00 25 	sethi  %hi(0x9400), %o4
    7b54:	da 00 62 58 	ld  [ %g1 + 0x258 ], %o5
    7b58:	90 02 00 04 	add  %o0, %g4, %o0
    7b5c:	98 03 00 04 	add  %o4, %g4, %o4
    7b60:	90 02 20 38 	add  %o0, 0x38, %o0
    7b64:	98 03 20 50 	add  %o4, 0x50, %o4
    7b68:	92 10 20 05 	mov  5, %o1
    7b6c:	94 10 20 02 	mov  2, %o2
    7b70:	96 07 a7 f7 	add  %fp, 0x7f7, %o3
    7b74:	f2 73 a8 b7 	stx  %i1, [ %sp + 0x8b7 ]
    7b78:	f0 73 a8 bf 	stx  %i0, [ %sp + 0x8bf ]
    7b7c:	7f ff ff 59 	call  78e0 <ofw_call>
    7b80:	c0 73 a8 af 	clrx  [ %sp + 0x8af ]
    7b84:	22 ca 00 09 	brz,a   %o0, 7ba8 <ofw_claim_virt+0x68>
    7b88:	f0 5f a7 f7 	ldx  [ %fp + 0x7f7 ], %i0
    7b8c:	11 00 00 25 	sethi  %hi(0x9400), %o0
    7b90:	90 02 00 04 	add  %o0, %g4, %o0
    7b94:	7f ff fc 2b 	call  6c40 <puts>
    7b98:	90 02 20 88 	add  %o0, 0x88, %o0
    7b9c:	40 00 05 21 	call  9020 <halt>
    7ba0:	01 00 00 00 	nop 
    7ba4:	f0 5f a7 f7 	ldx  [ %fp + 0x7f7 ], %i0
    7ba8:	81 cf e0 08 	rett  %i7 + 8
    7bac:	01 00 00 00 	nop 
    7bb0:	30 68 00 04 	b,a   %xcc, 7bc0 <ofw_translate>
    7bb4:	01 00 00 00 	nop 
    7bb8:	01 00 00 00 	nop 
    7bbc:	01 00 00 00 	nop 

0000000000007bc0 <ofw_translate>:
    7bc0:	9d e3 bf 20 	save  %sp, -224, %sp
    7bc4:	03 00 00 27 	sethi  %hi(0x9c00), %g1
    7bc8:	82 00 40 04 	add  %g1, %g4, %g1
    7bcc:	11 00 00 25 	sethi  %hi(0x9400), %o0
    7bd0:	19 00 00 25 	sethi  %hi(0x9400), %o4
    7bd4:	da 00 62 58 	ld  [ %g1 + 0x258 ], %o5
    7bd8:	90 02 00 04 	add  %o0, %g4, %o0
    7bdc:	98 03 00 04 	add  %o4, %g4, %o4
    7be0:	90 02 20 38 	add  %o0, 0x38, %o0
    7be4:	98 03 20 b8 	add  %o4, 0xb8, %o4
    7be8:	92 10 20 03 	mov  3, %o1
    7bec:	94 10 20 05 	mov  5, %o2
    7bf0:	96 07 a7 df 	add  %fp, 0x7df, %o3
    7bf4:	7f ff ff 3b 	call  78e0 <ofw_call>
    7bf8:	f0 73 a8 af 	stx  %i0, [ %sp + 0x8af ]
    7bfc:	0a c2 00 0d 	brnz,pn   %o0, 7c30 <ofw_translate+0x70>
    7c00:	11 00 00 25 	sethi  %hi(0x9400), %o0
    7c04:	40 00 04 17 	call  8c60 <ofw_translate_failed>
    7c08:	d0 5f a7 df 	ldx  [ %fp + 0x7df ], %o0
    7c0c:	80 a2 20 00 	cmp  %o0, 0
    7c10:	12 40 00 06 	bne,pn   %icc, 7c28 <ofw_translate+0x68>
    7c14:	b0 10 20 00 	clr  %i0
    7c18:	f0 5f a7 ef 	ldx  [ %fp + 0x7ef ], %i0
    7c1c:	c2 5f a7 f7 	ldx  [ %fp + 0x7f7 ], %g1
    7c20:	b1 2e 30 20 	sllx  %i0, 0x20, %i0
    7c24:	b0 16 00 01 	or  %i0, %g1, %i0
    7c28:	81 cf e0 08 	rett  %i7 + 8
    7c2c:	01 00 00 00 	nop 
    7c30:	90 02 00 04 	add  %o0, %g4, %o0
    7c34:	7f ff fc 03 	call  6c40 <puts>
    7c38:	90 02 20 c8 	add  %o0, 0xc8, %o0
    7c3c:	40 00 04 f9 	call  9020 <halt>
    7c40:	01 00 00 00 	nop 
    7c44:	10 6f ff f0 	b  %xcc, 7c04 <ofw_translate+0x44>
    7c48:	01 00 00 00 	nop 
    7c4c:	30 68 00 05 	b,a   %xcc, 7c60 <ofw_write>
    7c50:	01 00 00 00 	nop 
    7c54:	01 00 00 00 	nop 
    7c58:	01 00 00 00 	nop 
    7c5c:	01 00 00 00 	nop 

0000000000007c60 <ofw_write>:
    7c60:	9d e3 bf 40 	save  %sp, -192, %sp
    7c64:	03 00 00 27 	sethi  %hi(0x9c00), %g1
    7c68:	82 00 40 04 	add  %g1, %g4, %g1
    7c6c:	d8 00 62 44 	ld  [ %g1 + 0x244 ], %o4
    7c70:	80 a3 20 00 	cmp  %o4, 0
    7c74:	02 48 00 0b 	be  %icc, 7ca0 <ofw_write+0x40>
    7c78:	11 00 00 25 	sethi  %hi(0x9400), %o0
    7c7c:	90 02 00 04 	add  %o0, %g4, %o0
    7c80:	99 33 20 00 	srl  %o4, 0, %o4
    7c84:	9a 10 00 18 	mov  %i0, %o5
    7c88:	92 10 20 03 	mov  3, %o1
    7c8c:	94 10 20 01 	mov  1, %o2
    7c90:	96 10 20 00 	clr  %o3
    7c94:	90 02 20 f8 	add  %o0, 0xf8, %o0
    7c98:	7f ff ff 12 	call  78e0 <ofw_call>
    7c9c:	f2 73 a8 af 	stx  %i1, [ %sp + 0x8af ]
    7ca0:	81 cf e0 08 	rett  %i7 + 8
    7ca4:	01 00 00 00 	nop 
    7ca8:	30 68 00 06 	b,a   %xcc, 7cc0 <ofw_get_peer_node>
    7cac:	01 00 00 00 	nop 
    7cb0:	01 00 00 00 	nop 
    7cb4:	01 00 00 00 	nop 
    7cb8:	01 00 00 00 	nop 
    7cbc:	01 00 00 00 	nop 

0000000000007cc0 <ofw_get_peer_node>:
    7cc0:	9d e3 bf 50 	save  %sp, -176, %sp
    7cc4:	11 00 00 25 	sethi  %hi(0x9400), %o0
    7cc8:	90 02 00 04 	add  %o0, %g4, %o0
    7ccc:	98 10 00 18 	mov  %i0, %o4
    7cd0:	92 10 20 01 	mov  1, %o1
    7cd4:	94 10 20 01 	mov  1, %o2
    7cd8:	96 10 20 00 	clr  %o3
    7cdc:	7f ff ff 01 	call  78e0 <ofw_call>
    7ce0:	90 02 21 00 	add  %o0, 0x100, %o0
    7ce4:	b1 32 20 00 	srl  %o0, 0, %i0
    7ce8:	81 cf e0 08 	rett  %i7 + 8
    7cec:	01 00 00 00 	nop 
    7cf0:	30 68 00 04 	b,a   %xcc, 7d00 <ofw_get_child_node>
    7cf4:	01 00 00 00 	nop 
    7cf8:	01 00 00 00 	nop 
    7cfc:	01 00 00 00 	nop 

0000000000007d00 <ofw_get_child_node>:
    7d00:	9d e3 bf 50 	save  %sp, -176, %sp
    7d04:	11 00 00 25 	sethi  %hi(0x9400), %o0
    7d08:	90 02 00 04 	add  %o0, %g4, %o0
    7d0c:	98 10 00 18 	mov  %i0, %o4
    7d10:	92 10 20 01 	mov  1, %o1
    7d14:	94 10 20 01 	mov  1, %o2
    7d18:	96 10 20 00 	clr  %o3
    7d1c:	7f ff fe f1 	call  78e0 <ofw_call>
    7d20:	90 02 21 08 	add  %o0, 0x108, %o0
    7d24:	b1 32 20 00 	srl  %o0, 0, %i0
    7d28:	81 cf e0 08 	rett  %i7 + 8
    7d2c:	01 00 00 00 	nop 
    7d30:	30 68 00 04 	b,a   %xcc, 7d40 <ofw_package_to_path>
    7d34:	01 00 00 00 	nop 
    7d38:	01 00 00 00 	nop 
    7d3c:	01 00 00 00 	nop 

0000000000007d40 <ofw_package_to_path>:
    7d40:	9d e3 bf 40 	save  %sp, -192, %sp
    7d44:	11 00 00 25 	sethi  %hi(0x9400), %o0
    7d48:	90 02 00 04 	add  %o0, %g4, %o0
    7d4c:	98 10 00 18 	mov  %i0, %o4
    7d50:	9a 10 00 19 	mov  %i1, %o5
    7d54:	92 10 20 03 	mov  3, %o1
    7d58:	94 10 20 01 	mov  1, %o2
    7d5c:	96 10 20 00 	clr  %o3
    7d60:	90 02 21 10 	add  %o0, 0x110, %o0
    7d64:	7f ff fe df 	call  78e0 <ofw_call>
    7d68:	f4 73 a8 af 	stx  %i2, [ %sp + 0x8af ]
    7d6c:	b1 3a 20 00 	sra  %o0, 0, %i0
    7d70:	81 cf e0 08 	rett  %i7 + 8
    7d74:	01 00 00 00 	nop 
    7d78:	01 00 00 00 	nop 
    7d7c:	01 00 00 00 	nop 

0000000000007d80 <ofw_next_property>:
    7d80:	9d e3 bf 40 	save  %sp, -192, %sp
    7d84:	11 00 00 25 	sethi  %hi(0x9400), %o0
    7d88:	90 02 00 04 	add  %o0, %g4, %o0
    7d8c:	98 10 00 18 	mov  %i0, %o4
    7d90:	9a 10 00 19 	mov  %i1, %o5
    7d94:	92 10 20 03 	mov  3, %o1
    7d98:	94 10 20 01 	mov  1, %o2
    7d9c:	96 10 20 00 	clr  %o3
    7da0:	90 02 21 20 	add  %o0, 0x120, %o0
    7da4:	7f ff fe cf 	call  78e0 <ofw_call>
    7da8:	f4 73 a8 af 	stx  %i2, [ %sp + 0x8af ]
    7dac:	b1 3a 20 00 	sra  %o0, 0, %i0
    7db0:	81 cf e0 08 	rett  %i7 + 8
    7db4:	01 00 00 00 	nop 
    7db8:	01 00 00 00 	nop 
    7dbc:	01 00 00 00 	nop 

0000000000007dc0 <ofw_get_proplen>:
    7dc0:	9d e3 bf 50 	save  %sp, -176, %sp
    7dc4:	11 00 00 25 	sethi  %hi(0x9400), %o0
    7dc8:	90 02 00 04 	add  %o0, %g4, %o0
    7dcc:	98 10 00 18 	mov  %i0, %o4
    7dd0:	9a 10 00 19 	mov  %i1, %o5
    7dd4:	92 10 20 02 	mov  2, %o1
    7dd8:	94 10 20 01 	mov  1, %o2
    7ddc:	96 10 20 00 	clr  %o3
    7de0:	7f ff fe c0 	call  78e0 <ofw_call>
    7de4:	90 02 21 30 	add  %o0, 0x130, %o0
    7de8:	b1 3a 20 00 	sra  %o0, 0, %i0
    7dec:	81 cf e0 08 	rett  %i7 + 8
    7df0:	01 00 00 00 	nop 
    7df4:	30 68 00 03 	b,a   %xcc, 7e00 <ofw_get_property>
    7df8:	01 00 00 00 	nop 
    7dfc:	01 00 00 00 	nop 

0000000000007e00 <ofw_get_property>:
    7e00:	9d e3 bf 40 	save  %sp, -192, %sp
    7e04:	11 00 00 25 	sethi  %hi(0x9400), %o0
    7e08:	90 02 00 04 	add  %o0, %g4, %o0
    7e0c:	98 10 00 18 	mov  %i0, %o4
    7e10:	9a 10 00 19 	mov  %i1, %o5
    7e14:	92 10 20 04 	mov  4, %o1
    7e18:	94 10 20 01 	mov  1, %o2
    7e1c:	96 10 20 00 	clr  %o3
    7e20:	90 02 21 40 	add  %o0, 0x140, %o0
    7e24:	f4 73 a8 af 	stx  %i2, [ %sp + 0x8af ]
    7e28:	7f ff fe ae 	call  78e0 <ofw_call>
    7e2c:	f6 73 a8 b7 	stx  %i3, [ %sp + 0x8b7 ]
    7e30:	b1 3a 20 00 	sra  %o0, 0, %i0
    7e34:	81 cf e0 08 	rett  %i7 + 8
    7e38:	01 00 00 00 	nop 
    7e3c:	01 00 00 00 	nop 

0000000000007e40 <ofw_get_size_cells>:
    7e40:	9d e3 bf 30 	save  %sp, -208, %sp
    7e44:	23 00 00 25 	sethi  %hi(0x9400), %l1
    7e48:	21 00 00 25 	sethi  %hi(0x9400), %l0
    7e4c:	a2 04 40 04 	add  %l1, %g4, %l1
    7e50:	a0 04 00 04 	add  %l0, %g4, %l0
    7e54:	98 10 00 18 	mov  %i0, %o4
    7e58:	a6 07 a7 fb 	add  %fp, 0x7fb, %l3
    7e5c:	a4 10 20 04 	mov  4, %l2
    7e60:	90 04 61 40 	add  %l1, 0x140, %o0
    7e64:	92 10 20 04 	mov  4, %o1
    7e68:	94 10 20 01 	mov  1, %o2
    7e6c:	96 10 20 00 	clr  %o3
    7e70:	9a 04 21 48 	add  %l0, 0x148, %o5
    7e74:	e6 73 a8 af 	stx  %l3, [ %sp + 0x8af ]
    7e78:	7f ff fe 9a 	call  78e0 <ofw_call>
    7e7c:	e4 73 a8 b7 	stx  %l2, [ %sp + 0x8b7 ]
    7e80:	80 a2 20 00 	cmp  %o0, 0
    7e84:	04 40 00 05 	ble,pn   %icc, 7e98 <ofw_get_size_cells+0x58>
    7e88:	03 00 00 27 	sethi  %hi(0x9c00), %g1
    7e8c:	f0 07 a7 fb 	ld  [ %fp + 0x7fb ], %i0
    7e90:	81 cf e0 08 	rett  %i7 + 8
    7e94:	91 32 20 00 	srl  %o0, 0, %o0
    7e98:	82 00 40 04 	add  %g1, %g4, %g1
    7e9c:	d8 00 62 4c 	ld  [ %g1 + 0x24c ], %o4
    7ea0:	90 04 61 40 	add  %l1, 0x140, %o0
    7ea4:	9a 04 21 48 	add  %l0, 0x148, %o5
    7ea8:	92 10 20 04 	mov  4, %o1
    7eac:	94 10 20 01 	mov  1, %o2
    7eb0:	96 10 20 00 	clr  %o3
    7eb4:	e6 73 a8 af 	stx  %l3, [ %sp + 0x8af ]
    7eb8:	7f ff fe 8a 	call  78e0 <ofw_call>
    7ebc:	e4 73 a8 b7 	stx  %l2, [ %sp + 0x8b7 ]
    7ec0:	f0 07 a7 fb 	ld  [ %fp + 0x7fb ], %i0
    7ec4:	80 a2 20 00 	cmp  %o0, 0
    7ec8:	b1 64 a0 02 	movle  %icc, 2, %i0
    7ecc:	81 cf e0 08 	rett  %i7 + 8
    7ed0:	91 32 20 00 	srl  %o0, 0, %o0
    7ed4:	30 68 00 03 	b,a   %xcc, 7ee0 <ofw_get_address_cells>
    7ed8:	01 00 00 00 	nop 
    7edc:	01 00 00 00 	nop 

0000000000007ee0 <ofw_get_address_cells>:
    7ee0:	9d e3 bf 30 	save  %sp, -208, %sp
    7ee4:	23 00 00 25 	sethi  %hi(0x9400), %l1
    7ee8:	21 00 00 25 	sethi  %hi(0x9400), %l0
    7eec:	a2 04 40 04 	add  %l1, %g4, %l1
    7ef0:	a0 04 00 04 	add  %l0, %g4, %l0
    7ef4:	82 10 20 01 	mov  1, %g1
    7ef8:	98 10 00 18 	mov  %i0, %o4
    7efc:	a6 07 a7 fb 	add  %fp, 0x7fb, %l3
    7f00:	a4 10 20 04 	mov  4, %l2
    7f04:	90 04 61 40 	add  %l1, 0x140, %o0
    7f08:	92 10 20 04 	mov  4, %o1
    7f0c:	94 10 20 01 	mov  1, %o2
    7f10:	96 10 20 00 	clr  %o3
    7f14:	9a 04 21 58 	add  %l0, 0x158, %o5
    7f18:	c2 27 a7 fb 	st  %g1, [ %fp + 0x7fb ]
    7f1c:	e6 73 a8 af 	stx  %l3, [ %sp + 0x8af ]
    7f20:	7f ff fe 70 	call  78e0 <ofw_call>
    7f24:	e4 73 a8 b7 	stx  %l2, [ %sp + 0x8b7 ]
    7f28:	80 a2 20 00 	cmp  %o0, 0
    7f2c:	04 40 00 05 	ble,pn   %icc, 7f40 <ofw_get_address_cells+0x60>
    7f30:	03 00 00 27 	sethi  %hi(0x9c00), %g1
    7f34:	f0 07 a7 fb 	ld  [ %fp + 0x7fb ], %i0
    7f38:	81 cf e0 08 	rett  %i7 + 8
    7f3c:	91 32 20 00 	srl  %o0, 0, %o0
    7f40:	82 00 40 04 	add  %g1, %g4, %g1
    7f44:	d8 00 62 4c 	ld  [ %g1 + 0x24c ], %o4
    7f48:	90 04 61 40 	add  %l1, 0x140, %o0
    7f4c:	9a 04 21 58 	add  %l0, 0x158, %o5
    7f50:	92 10 20 04 	mov  4, %o1
    7f54:	94 10 20 01 	mov  1, %o2
    7f58:	96 10 20 00 	clr  %o3
    7f5c:	e6 73 a8 af 	stx  %l3, [ %sp + 0x8af ]
    7f60:	7f ff fe 60 	call  78e0 <ofw_call>
    7f64:	e4 73 a8 b7 	stx  %l2, [ %sp + 0x8b7 ]
    7f68:	f0 07 a7 fb 	ld  [ %fp + 0x7fb ], %i0
    7f6c:	80 a2 20 00 	cmp  %o0, 0
    7f70:	b1 64 a0 02 	movle  %icc, 2, %i0
    7f74:	81 cf e0 08 	rett  %i7 + 8
    7f78:	91 32 20 00 	srl  %o0, 0, %o0
    7f7c:	01 00 00 00 	nop 

0000000000007f80 <ofw_find_device>:
    7f80:	9d e3 bf 50 	save  %sp, -176, %sp
    7f84:	11 00 00 25 	sethi  %hi(0x9400), %o0
    7f88:	90 02 00 04 	add  %o0, %g4, %o0
    7f8c:	98 10 00 18 	mov  %i0, %o4
    7f90:	92 10 20 01 	mov  1, %o1
    7f94:	94 10 20 01 	mov  1, %o2
    7f98:	96 10 20 00 	clr  %o3
    7f9c:	7f ff fe 51 	call  78e0 <ofw_call>
    7fa0:	90 02 21 68 	add  %o0, 0x168, %o0
    7fa4:	b1 32 20 00 	srl  %o0, 0, %i0
    7fa8:	81 cf e0 08 	rett  %i7 + 8
    7fac:	01 00 00 00 	nop 
    7fb0:	30 68 00 04 	b,a   %xcc, 7fc0 <ofw_init>
    7fb4:	01 00 00 00 	nop 
    7fb8:	01 00 00 00 	nop 
    7fbc:	01 00 00 00 	nop 

0000000000007fc0 <ofw_init>:
    7fc0:	9d e3 bf 40 	save  %sp, -192, %sp
    7fc4:	21 00 00 25 	sethi  %hi(0x9400), %l0
    7fc8:	19 00 00 25 	sethi  %hi(0x9400), %o4
    7fcc:	98 03 00 04 	add  %o4, %g4, %o4
    7fd0:	90 04 00 04 	add  %l0, %g4, %o0
    7fd4:	98 03 21 78 	add  %o4, 0x178, %o4
    7fd8:	90 02 21 68 	add  %o0, 0x168, %o0
    7fdc:	92 10 20 01 	mov  1, %o1
    7fe0:	94 10 20 01 	mov  1, %o2
    7fe4:	7f ff fe 3f 	call  78e0 <ofw_call>
    7fe8:	96 10 20 00 	clr  %o3
    7fec:	25 00 00 27 	sethi  %hi(0x9c00), %l2
    7ff0:	a2 04 80 04 	add  %l2, %g4, %l1
    7ff4:	d0 24 62 3c 	st  %o0, [ %l1 + 0x23c ]
    7ff8:	80 a2 3f ff 	cmp  %o0, -1
    7ffc:	02 40 00 8d 	be,pn   %icc, 8230 <ofw_init+0x270>
    8000:	98 10 00 08 	mov  %o0, %o4
    8004:	27 00 00 27 	sethi  %hi(0x9c00), %l3
    8008:	23 00 00 25 	sethi  %hi(0x9400), %l1
    800c:	a6 04 c0 04 	add  %l3, %g4, %l3
    8010:	1b 00 00 25 	sethi  %hi(0x9400), %o5
    8014:	82 04 e2 44 	add  %l3, 0x244, %g1
    8018:	9a 03 40 04 	add  %o5, %g4, %o5
    801c:	90 04 40 04 	add  %l1, %g4, %o0
    8020:	c2 73 a8 af 	stx  %g1, [ %sp + 0x8af ]
    8024:	90 02 21 40 	add  %o0, 0x140, %o0
    8028:	82 10 20 04 	mov  4, %g1
    802c:	99 33 20 00 	srl  %o4, 0, %o4
    8030:	9a 03 61 80 	add  %o5, 0x180, %o5
    8034:	92 10 20 04 	mov  4, %o1
    8038:	94 10 20 01 	mov  1, %o2
    803c:	96 10 20 00 	clr  %o3
    8040:	7f ff fe 28 	call  78e0 <ofw_call>
    8044:	c2 73 a8 b7 	stx  %g1, [ %sp + 0x8b7 ]
    8048:	80 a2 20 00 	cmp  %o0, 0
    804c:	04 40 00 55 	ble,pn   %icc, 81a0 <ofw_init+0x1e0>
    8050:	19 00 00 24 	sethi  %hi(0x9000), %o4
    8054:	98 03 00 04 	add  %o4, %g4, %o4
    8058:	90 04 00 04 	add  %l0, %g4, %o0
    805c:	90 02 21 68 	add  %o0, 0x168, %o0
    8060:	98 03 21 58 	add  %o4, 0x158, %o4
    8064:	92 10 20 01 	mov  1, %o1
    8068:	94 10 20 01 	mov  1, %o2
    806c:	7f ff fe 1d 	call  78e0 <ofw_call>
    8070:	96 10 20 00 	clr  %o3
    8074:	03 00 00 27 	sethi  %hi(0x9c00), %g1
    8078:	82 00 40 04 	add  %g1, %g4, %g1
    807c:	80 a2 3f ff 	cmp  %o0, -1
    8080:	02 40 00 56 	be,pn   %icc, 81d8 <ofw_init+0x218>
    8084:	d0 20 62 4c 	st  %o0, [ %g1 + 0x24c ]
    8088:	82 04 80 04 	add  %l2, %g4, %g1
    808c:	d8 00 62 3c 	ld  [ %g1 + 0x23c ], %o4
    8090:	03 00 00 27 	sethi  %hi(0x9c00), %g1
    8094:	82 00 40 04 	add  %g1, %g4, %g1
    8098:	1b 00 00 25 	sethi  %hi(0x9400), %o5
    809c:	82 00 62 58 	add  %g1, 0x258, %g1
    80a0:	9a 03 40 04 	add  %o5, %g4, %o5
    80a4:	90 04 40 04 	add  %l1, %g4, %o0
    80a8:	c2 73 a8 af 	stx  %g1, [ %sp + 0x8af ]
    80ac:	90 02 21 40 	add  %o0, 0x140, %o0
    80b0:	82 10 20 04 	mov  4, %g1
    80b4:	9a 03 61 b8 	add  %o5, 0x1b8, %o5
    80b8:	92 10 20 04 	mov  4, %o1
    80bc:	94 10 20 01 	mov  1, %o2
    80c0:	96 10 20 00 	clr  %o3
    80c4:	7f ff fe 07 	call  78e0 <ofw_call>
    80c8:	c2 73 a8 b7 	stx  %g1, [ %sp + 0x8b7 ]
    80cc:	80 a2 20 00 	cmp  %o0, 0
    80d0:	04 40 00 5c 	ble,pn   %icc, 8240 <ofw_init+0x280>
    80d4:	11 00 00 25 	sethi  %hi(0x9400), %o0
    80d8:	a4 04 80 04 	add  %l2, %g4, %l2
    80dc:	03 00 00 27 	sethi  %hi(0x9c00), %g1
    80e0:	d8 04 a2 3c 	ld  [ %l2 + 0x23c ], %o4
    80e4:	82 00 40 04 	add  %g1, %g4, %g1
    80e8:	1b 00 00 25 	sethi  %hi(0x9400), %o5
    80ec:	82 00 62 40 	add  %g1, 0x240, %g1
    80f0:	9a 03 40 04 	add  %o5, %g4, %o5
    80f4:	90 04 40 04 	add  %l1, %g4, %o0
    80f8:	c2 73 a8 af 	stx  %g1, [ %sp + 0x8af ]
    80fc:	90 02 21 40 	add  %o0, 0x140, %o0
    8100:	82 10 20 04 	mov  4, %g1
    8104:	9a 03 61 f0 	add  %o5, 0x1f0, %o5
    8108:	92 10 20 04 	mov  4, %o1
    810c:	94 10 20 01 	mov  1, %o2
    8110:	96 10 20 00 	clr  %o3
    8114:	7f ff fd f3 	call  78e0 <ofw_call>
    8118:	c2 73 a8 b7 	stx  %g1, [ %sp + 0x8b7 ]
    811c:	80 a2 20 00 	cmp  %o0, 0
    8120:	04 40 00 4f 	ble,pn   %icc, 825c <ofw_init+0x29c>
    8124:	11 00 00 25 	sethi  %hi(0x9400), %o0
    8128:	19 00 00 25 	sethi  %hi(0x9400), %o4
    812c:	98 03 00 04 	add  %o4, %g4, %o4
    8130:	90 04 00 04 	add  %l0, %g4, %o0
    8134:	90 02 21 68 	add  %o0, 0x168, %o0
    8138:	98 03 22 30 	add  %o4, 0x230, %o4
    813c:	92 10 20 01 	mov  1, %o1
    8140:	94 10 20 01 	mov  1, %o2
    8144:	7f ff fd e7 	call  78e0 <ofw_call>
    8148:	96 10 20 00 	clr  %o3
    814c:	03 00 00 27 	sethi  %hi(0x9c00), %g1
    8150:	82 00 40 04 	add  %g1, %g4, %g1
    8154:	80 a2 3f ff 	cmp  %o0, -1
    8158:	02 40 00 2e 	be,pn   %icc, 8210 <ofw_init+0x250>
    815c:	d0 20 62 48 	st  %o0, [ %g1 + 0x248 ]
    8160:	19 00 00 25 	sethi  %hi(0x9400), %o4
    8164:	98 03 00 04 	add  %o4, %g4, %o4
    8168:	90 04 00 04 	add  %l0, %g4, %o0
    816c:	90 02 21 68 	add  %o0, 0x168, %o0
    8170:	98 03 22 70 	add  %o4, 0x270, %o4
    8174:	92 10 20 01 	mov  1, %o1
    8178:	94 10 20 01 	mov  1, %o2
    817c:	7f ff fd d9 	call  78e0 <ofw_call>
    8180:	96 10 20 00 	clr  %o3
    8184:	03 00 00 27 	sethi  %hi(0x9c00), %g1
    8188:	82 00 40 04 	add  %g1, %g4, %g1
    818c:	80 a2 3f ff 	cmp  %o0, -1
    8190:	02 40 00 1a 	be,pn   %icc, 81f8 <ofw_init+0x238>
    8194:	d0 20 62 38 	st  %o0, [ %g1 + 0x238 ]
    8198:	81 cf e0 08 	rett  %i7 + 8
    819c:	01 00 00 00 	nop 
    81a0:	98 03 00 04 	add  %o4, %g4, %o4
    81a4:	90 04 00 04 	add  %l0, %g4, %o0
    81a8:	90 02 21 68 	add  %o0, 0x168, %o0
    81ac:	98 03 21 58 	add  %o4, 0x158, %o4
    81b0:	92 10 20 01 	mov  1, %o1
    81b4:	94 10 20 01 	mov  1, %o2
    81b8:	96 10 20 00 	clr  %o3
    81bc:	7f ff fd c9 	call  78e0 <ofw_call>
    81c0:	c0 24 e2 44 	clr  [ %l3 + 0x244 ]
    81c4:	03 00 00 27 	sethi  %hi(0x9c00), %g1
    81c8:	82 00 40 04 	add  %g1, %g4, %g1
    81cc:	80 a2 3f ff 	cmp  %o0, -1
    81d0:	12 4f ff ae 	bne  %icc, 8088 <ofw_init+0xc8>
    81d4:	d0 20 62 4c 	st  %o0, [ %g1 + 0x24c ]
    81d8:	11 00 00 25 	sethi  %hi(0x9400), %o0
    81dc:	90 02 00 04 	add  %o0, %g4, %o0
    81e0:	7f ff fa 98 	call  6c40 <puts>
    81e4:	90 02 21 88 	add  %o0, 0x188, %o0
    81e8:	40 00 03 8e 	call  9020 <halt>
    81ec:	01 00 00 00 	nop 
    81f0:	10 6f ff a7 	b  %xcc, 808c <ofw_init+0xcc>
    81f4:	82 04 80 04 	add  %l2, %g4, %g1
    81f8:	11 00 00 25 	sethi  %hi(0x9400), %o0
    81fc:	90 02 00 04 	add  %o0, %g4, %o0
    8200:	7f ff fa 90 	call  6c40 <puts>
    8204:	90 02 22 80 	add  %o0, 0x280, %o0
    8208:	40 00 03 86 	call  9020 <halt>
    820c:	81 e8 00 00 	restore 
    8210:	11 00 00 25 	sethi  %hi(0x9400), %o0
    8214:	90 02 00 04 	add  %o0, %g4, %o0
    8218:	7f ff fa 8a 	call  6c40 <puts>
    821c:	90 02 22 38 	add  %o0, 0x238, %o0
    8220:	40 00 03 80 	call  9020 <halt>
    8224:	01 00 00 00 	nop 
    8228:	10 6f ff cf 	b  %xcc, 8164 <ofw_init+0x1a4>
    822c:	19 00 00 25 	sethi  %hi(0x9400), %o4
    8230:	40 00 03 7c 	call  9020 <halt>
    8234:	27 00 00 27 	sethi  %hi(0x9c00), %l3
    8238:	10 6f ff 74 	b  %xcc, 8008 <ofw_init+0x48>
    823c:	d8 04 62 3c 	ld  [ %l1 + 0x23c ], %o4
    8240:	90 02 00 04 	add  %o0, %g4, %o0
    8244:	7f ff fa 7f 	call  6c40 <puts>
    8248:	90 02 21 c0 	add  %o0, 0x1c0, %o0
    824c:	40 00 03 75 	call  9020 <halt>
    8250:	a4 04 80 04 	add  %l2, %g4, %l2
    8254:	10 6f ff a3 	b  %xcc, 80e0 <ofw_init+0x120>
    8258:	03 00 00 27 	sethi  %hi(0x9c00), %g1
    825c:	90 02 00 04 	add  %o0, %g4, %o0
    8260:	7f ff fa 78 	call  6c40 <puts>
    8264:	90 02 21 f8 	add  %o0, 0x1f8, %o0
    8268:	40 00 03 6e 	call  9020 <halt>
    826c:	01 00 00 00 	nop 
    8270:	10 6f ff af 	b  %xcc, 812c <ofw_init+0x16c>
    8274:	19 00 00 25 	sethi  %hi(0x9400), %o4
    8278:	01 00 00 00 	nop 
    827c:	01 00 00 00 	nop 

0000000000008280 <setup_palette>:
    8280:	9d e3 bb 20 	save  %sp, -1248, %sp
    8284:	03 00 00 27 	sethi  %hi(0x9c00), %g1
    8288:	82 00 40 04 	add  %g1, %g4, %g1
    828c:	d8 00 62 38 	ld  [ %g1 + 0x238 ], %o4
    8290:	23 00 00 25 	sethi  %hi(0x9400), %l1
    8294:	1b 00 00 25 	sethi  %hi(0x9400), %o5
    8298:	a2 04 40 04 	add  %l1, %g4, %l1
    829c:	9a 03 40 04 	add  %o5, %g4, %o5
    82a0:	82 10 24 00 	mov  0x400, %g1
    82a4:	9a 03 62 b8 	add  %o5, 0x2b8, %o5
    82a8:	a0 07 a3 f7 	add  %fp, 0x3f7, %l0
    82ac:	90 04 61 40 	add  %l1, 0x140, %o0
    82b0:	92 10 20 04 	mov  4, %o1
    82b4:	94 10 20 01 	mov  1, %o2
    82b8:	96 10 20 00 	clr  %o3
    82bc:	c2 73 a8 b7 	stx  %g1, [ %sp + 0x8b7 ]
    82c0:	7f ff fd 88 	call  78e0 <ofw_call>
    82c4:	e0 73 a8 af 	stx  %l0, [ %sp + 0x8af ]
    82c8:	80 a2 20 00 	cmp  %o0, 0
    82cc:	04 40 00 1f 	ble,pn   %icc, 8348 <setup_palette+0xc8>
    82d0:	11 00 00 25 	sethi  %hi(0x9400), %o0
    82d4:	90 02 00 04 	add  %o0, %g4, %o0
    82d8:	98 10 00 10 	mov  %l0, %o4
    82dc:	90 02 21 68 	add  %o0, 0x168, %o0
    82e0:	92 10 20 01 	mov  1, %o1
    82e4:	94 10 20 01 	mov  1, %o2
    82e8:	7f ff fd 7e 	call  78e0 <ofw_call>
    82ec:	96 10 20 00 	clr  %o3
    82f0:	80 a2 3f ff 	cmp  %o0, -1
    82f4:	02 40 00 15 	be,pn   %icc, 8348 <setup_palette+0xc8>
    82f8:	98 10 00 08 	mov  %o0, %o4
    82fc:	1b 00 00 25 	sethi  %hi(0x9400), %o5
    8300:	82 07 a7 fb 	add  %fp, 0x7fb, %g1
    8304:	9a 03 40 04 	add  %o5, %g4, %o5
    8308:	c2 73 a8 af 	stx  %g1, [ %sp + 0x8af ]
    830c:	90 04 61 40 	add  %l1, 0x140, %o0
    8310:	82 10 20 04 	mov  4, %g1
    8314:	99 33 20 00 	srl  %o4, 0, %o4
    8318:	9a 03 62 c0 	add  %o5, 0x2c0, %o5
    831c:	92 10 20 04 	mov  4, %o1
    8320:	94 10 20 01 	mov  1, %o2
    8324:	96 10 20 00 	clr  %o3
    8328:	7f ff fd 6e 	call  78e0 <ofw_call>
    832c:	c2 73 a8 b7 	stx  %g1, [ %sp + 0x8b7 ]
    8330:	80 a2 20 00 	cmp  %o0, 0
    8334:	04 40 00 05 	ble,pn   %icc, 8348 <setup_palette+0xc8>
    8338:	c2 07 a7 fb 	ld  [ %fp + 0x7fb ], %g1
    833c:	80 a0 60 08 	cmp  %g1, 8
    8340:	02 40 00 05 	be,pn   %icc, 8354 <setup_palette+0xd4>
    8344:	11 00 00 25 	sethi  %hi(0x9400), %o0
    8348:	b0 10 20 00 	clr  %i0
    834c:	81 cf e0 08 	rett  %i7 + 8
    8350:	91 3a 20 00 	sra  %o0, 0, %o0
    8354:	90 02 00 04 	add  %o0, %g4, %o0
    8358:	90 02 22 c8 	add  %o0, 0x2c8, %o0
    835c:	98 10 00 10 	mov  %l0, %o4
    8360:	92 10 20 01 	mov  1, %o1
    8364:	94 10 20 01 	mov  1, %o2
    8368:	7f ff fd 5e 	call  78e0 <ofw_call>
    836c:	96 10 20 00 	clr  %o3
    8370:	80 a2 3f ff 	cmp  %o0, -1
    8374:	02 47 ff f5 	be,pn   %icc, 8348 <setup_palette+0xc8>
    8378:	27 00 00 25 	sethi  %hi(0x9400), %l3
    837c:	25 00 00 25 	sethi  %hi(0x9400), %l2
    8380:	a6 04 c0 04 	add  %l3, %g4, %l3
    8384:	a4 04 80 04 	add  %l2, %g4, %l2
    8388:	a9 32 20 00 	srl  %o0, 0, %l4
    838c:	a6 04 e0 38 	add  %l3, 0x38, %l3
    8390:	a4 04 a2 d0 	add  %l2, 0x2d0, %l2
    8394:	a0 10 20 00 	clr  %l0
    8398:	a2 10 20 ff 	mov  0xff, %l1
    839c:	85 34 20 03 	srl  %l0, 3, %g2
    83a0:	8a 24 40 10 	sub  %l1, %l0, %g5
    83a4:	87 2c 20 05 	sll  %l0, 5, %g3
    83a8:	82 0c 3f e0 	and  %l0, -32, %g1
    83ac:	85 28 a0 06 	sll  %g2, 6, %g2
    83b0:	8b 31 60 00 	srl  %g5, 0, %g5
    83b4:	87 30 e0 00 	srl  %g3, 0, %g3
    83b8:	85 30 a0 00 	srl  %g2, 0, %g2
    83bc:	83 30 60 00 	srl  %g1, 0, %g1
    83c0:	90 10 00 13 	mov  %l3, %o0
    83c4:	92 10 20 06 	mov  6, %o1
    83c8:	94 10 20 01 	mov  1, %o2
    83cc:	96 10 20 00 	clr  %o3
    83d0:	98 10 00 12 	mov  %l2, %o4
    83d4:	9a 10 00 14 	mov  %l4, %o5
    83d8:	ca 73 a8 af 	stx  %g5, [ %sp + 0x8af ]
    83dc:	c6 73 a8 b7 	stx  %g3, [ %sp + 0x8b7 ]
    83e0:	c4 73 a8 bf 	stx  %g2, [ %sp + 0x8bf ]
    83e4:	7f ff fd 3f 	call  78e0 <ofw_call>
    83e8:	c2 73 a8 c7 	stx  %g1, [ %sp + 0x8c7 ]
    83ec:	a0 04 20 01 	inc  %l0
    83f0:	80 a4 21 00 	cmp  %l0, 0x100
    83f4:	12 4f ff eb 	bne  %icc, 83a0 <setup_palette+0x120>
    83f8:	85 34 20 03 	srl  %l0, 3, %g2
    83fc:	10 6f ff d4 	b  %xcc, 834c <setup_palette+0xcc>
    8400:	b0 10 20 01 	mov  1, %i0
    8404:	30 68 00 07 	b,a   %xcc, 8420 <ofw_screen>
    8408:	01 00 00 00 	nop 
    840c:	01 00 00 00 	nop 
    8410:	01 00 00 00 	nop 
    8414:	01 00 00 00 	nop 
    8418:	01 00 00 00 	nop 
    841c:	01 00 00 00 	nop 

0000000000008420 <ofw_screen>:
    8420:	9d e3 bb 30 	save  %sp, -1232, %sp
    8424:	03 00 00 27 	sethi  %hi(0x9c00), %g1
    8428:	82 00 40 04 	add  %g1, %g4, %g1
    842c:	d8 00 62 38 	ld  [ %g1 + 0x238 ], %o4
    8430:	21 00 00 25 	sethi  %hi(0x9400), %l0
    8434:	1b 00 00 25 	sethi  %hi(0x9400), %o5
    8438:	a0 04 00 04 	add  %l0, %g4, %l0
    843c:	9a 03 40 04 	add  %o5, %g4, %o5
    8440:	82 10 24 00 	mov  0x400, %g1
    8444:	9a 03 62 b8 	add  %o5, 0x2b8, %o5
    8448:	a2 07 a3 f7 	add  %fp, 0x3f7, %l1
    844c:	90 04 21 40 	add  %l0, 0x140, %o0
    8450:	92 10 20 04 	mov  4, %o1
    8454:	94 10 20 01 	mov  1, %o2
    8458:	96 10 20 00 	clr  %o3
    845c:	c2 73 a8 b7 	stx  %g1, [ %sp + 0x8b7 ]
    8460:	7f ff fd 20 	call  78e0 <ofw_call>
    8464:	e2 73 a8 af 	stx  %l1, [ %sp + 0x8af ]
    8468:	80 a2 20 00 	cmp  %o0, 0
    846c:	04 40 00 57 	ble,pn   %icc, 85c8 <ofw_screen+0x1a8>
    8470:	11 00 00 25 	sethi  %hi(0x9400), %o0
    8474:	90 02 00 04 	add  %o0, %g4, %o0
    8478:	90 02 21 68 	add  %o0, 0x168, %o0
    847c:	98 10 00 11 	mov  %l1, %o4
    8480:	92 10 20 01 	mov  1, %o1
    8484:	94 10 20 01 	mov  1, %o2
    8488:	7f ff fd 16 	call  78e0 <ofw_call>
    848c:	96 10 20 00 	clr  %o3
    8490:	80 a2 3f ff 	cmp  %o0, -1
    8494:	02 40 00 4d 	be,pn   %icc, 85c8 <ofw_screen+0x1a8>
    8498:	1b 00 00 25 	sethi  %hi(0x9400), %o5
    849c:	a5 32 20 00 	srl  %o0, 0, %l2
    84a0:	9a 03 40 04 	add  %o5, %g4, %o5
    84a4:	82 07 a7 fb 	add  %fp, 0x7fb, %g1
    84a8:	9a 03 62 d8 	add  %o5, 0x2d8, %o5
    84ac:	a2 10 20 04 	mov  4, %l1
    84b0:	90 04 21 40 	add  %l0, 0x140, %o0
    84b4:	92 10 20 04 	mov  4, %o1
    84b8:	94 10 20 01 	mov  1, %o2
    84bc:	96 10 20 00 	clr  %o3
    84c0:	98 10 00 12 	mov  %l2, %o4
    84c4:	c2 73 a8 af 	stx  %g1, [ %sp + 0x8af ]
    84c8:	7f ff fd 06 	call  78e0 <ofw_call>
    84cc:	e2 73 a8 b7 	stx  %l1, [ %sp + 0x8b7 ]
    84d0:	80 a2 20 00 	cmp  %o0, 0
    84d4:	04 40 00 3d 	ble,pn   %icc, 85c8 <ofw_screen+0x1a8>
    84d8:	c2 07 a7 fb 	ld  [ %fp + 0x7fb ], %g1
    84dc:	1b 00 00 25 	sethi  %hi(0x9400), %o5
    84e0:	9a 03 40 04 	add  %o5, %g4, %o5
    84e4:	c2 76 00 00 	stx  %g1, [ %i0 ]
    84e8:	9a 03 62 e0 	add  %o5, 0x2e0, %o5
    84ec:	82 06 20 08 	add  %i0, 8, %g1
    84f0:	90 04 21 40 	add  %l0, 0x140, %o0
    84f4:	92 10 20 04 	mov  4, %o1
    84f8:	94 10 20 01 	mov  1, %o2
    84fc:	96 10 20 00 	clr  %o3
    8500:	98 10 00 12 	mov  %l2, %o4
    8504:	c2 73 a8 af 	stx  %g1, [ %sp + 0x8af ]
    8508:	7f ff fc f6 	call  78e0 <ofw_call>
    850c:	e2 73 a8 b7 	stx  %l1, [ %sp + 0x8b7 ]
    8510:	80 a2 20 00 	cmp  %o0, 0
    8514:	04 40 00 2d 	ble,pn   %icc, 85c8 <ofw_screen+0x1a8>
    8518:	1b 00 00 25 	sethi  %hi(0x9400), %o5
    851c:	9a 03 40 04 	add  %o5, %g4, %o5
    8520:	82 06 20 0c 	add  %i0, 0xc, %g1
    8524:	9a 03 62 e8 	add  %o5, 0x2e8, %o5
    8528:	90 04 21 40 	add  %l0, 0x140, %o0
    852c:	92 10 20 04 	mov  4, %o1
    8530:	94 10 20 01 	mov  1, %o2
    8534:	96 10 20 00 	clr  %o3
    8538:	98 10 00 12 	mov  %l2, %o4
    853c:	c2 73 a8 af 	stx  %g1, [ %sp + 0x8af ]
    8540:	7f ff fc e8 	call  78e0 <ofw_call>
    8544:	e2 73 a8 b7 	stx  %l1, [ %sp + 0x8b7 ]
    8548:	80 a2 20 00 	cmp  %o0, 0
    854c:	04 40 00 1f 	ble,pn   %icc, 85c8 <ofw_screen+0x1a8>
    8550:	1b 00 00 25 	sethi  %hi(0x9400), %o5
    8554:	9a 03 40 04 	add  %o5, %g4, %o5
    8558:	82 06 20 10 	add  %i0, 0x10, %g1
    855c:	9a 03 62 c0 	add  %o5, 0x2c0, %o5
    8560:	90 04 21 40 	add  %l0, 0x140, %o0
    8564:	92 10 20 04 	mov  4, %o1
    8568:	94 10 20 01 	mov  1, %o2
    856c:	96 10 20 00 	clr  %o3
    8570:	98 10 00 12 	mov  %l2, %o4
    8574:	c2 73 a8 af 	stx  %g1, [ %sp + 0x8af ]
    8578:	7f ff fc da 	call  78e0 <ofw_call>
    857c:	e2 73 a8 b7 	stx  %l1, [ %sp + 0x8b7 ]
    8580:	80 a2 20 00 	cmp  %o0, 0
    8584:	04 40 00 11 	ble,pn   %icc, 85c8 <ofw_screen+0x1a8>
    8588:	1b 00 00 25 	sethi  %hi(0x9400), %o5
    858c:	9a 03 40 04 	add  %o5, %g4, %o5
    8590:	b0 06 20 14 	add  %i0, 0x14, %i0
    8594:	90 04 21 40 	add  %l0, 0x140, %o0
    8598:	98 10 00 12 	mov  %l2, %o4
    859c:	9a 03 62 f0 	add  %o5, 0x2f0, %o5
    85a0:	92 10 20 04 	mov  4, %o1
    85a4:	94 10 20 01 	mov  1, %o2
    85a8:	96 10 20 00 	clr  %o3
    85ac:	f0 73 a8 af 	stx  %i0, [ %sp + 0x8af ]
    85b0:	7f ff fc cc 	call  78e0 <ofw_call>
    85b4:	e2 73 a8 b7 	stx  %l1, [ %sp + 0x8b7 ]
    85b8:	b0 10 20 00 	clr  %i0
    85bc:	91 3a 20 00 	sra  %o0, 0, %o0
    85c0:	10 68 00 03 	b  %xcc, 85cc <ofw_screen+0x1ac>
    85c4:	b1 7a 38 01 	movrgz  %o0, 1, %i0
    85c8:	b0 10 20 00 	clr  %i0
    85cc:	81 cf e0 08 	rett  %i7 + 8
    85d0:	91 3a 20 00 	sra  %o0, 0, %o0
    85d4:	30 68 00 03 	b,a   %xcc, 85e0 <ofw_memmap>
    85d8:	01 00 00 00 	nop 
    85dc:	01 00 00 00 	nop 

00000000000085e0 <ofw_memmap>:
    85e0:	9d e3 bf 30 	save  %sp, -208, %sp
    85e4:	23 00 00 27 	sethi  %hi(0x9c00), %l1
    85e8:	82 04 40 04 	add  %l1, %g4, %g1
    85ec:	d8 00 62 48 	ld  [ %g1 + 0x248 ], %o4
    85f0:	21 00 00 25 	sethi  %hi(0x9400), %l0
    85f4:	29 00 00 25 	sethi  %hi(0x9400), %l4
    85f8:	a8 05 00 04 	add  %l4, %g4, %l4
    85fc:	aa 04 00 04 	add  %l0, %g4, %l5
    8600:	82 10 20 01 	mov  1, %g1
    8604:	99 33 20 00 	srl  %o4, 0, %o4
    8608:	a4 07 a7 fb 	add  %fp, 0x7fb, %l2
    860c:	a6 10 20 04 	mov  4, %l3
    8610:	90 05 61 40 	add  %l5, 0x140, %o0
    8614:	92 10 20 04 	mov  4, %o1
    8618:	94 10 20 01 	mov  1, %o2
    861c:	96 10 20 00 	clr  %o3
    8620:	9a 05 21 58 	add  %l4, 0x158, %o5
    8624:	c2 27 a7 fb 	st  %g1, [ %fp + 0x7fb ]
    8628:	e4 73 a8 af 	stx  %l2, [ %sp + 0x8af ]
    862c:	7f ff fc ad 	call  78e0 <ofw_call>
    8630:	e6 73 a8 b7 	stx  %l3, [ %sp + 0x8b7 ]
    8634:	80 a2 20 00 	cmp  %o0, 0
    8638:	04 40 00 8e 	ble,pn   %icc, 8870 <ofw_memmap+0x290>
    863c:	03 00 00 27 	sethi  %hi(0x9c00), %g1
    8640:	e8 07 a7 fb 	ld  [ %fp + 0x7fb ], %l4
    8644:	a9 35 20 01 	srl  %l4, 1, %l4
    8648:	82 04 40 04 	add  %l1, %g4, %g1
    864c:	d8 00 62 48 	ld  [ %g1 + 0x248 ], %o4
    8650:	2b 00 00 25 	sethi  %hi(0x9400), %l5
    8654:	aa 05 40 04 	add  %l5, %g4, %l5
    8658:	ac 04 00 04 	add  %l0, %g4, %l6
    865c:	a6 10 20 04 	mov  4, %l3
    8660:	90 05 a1 40 	add  %l6, 0x140, %o0
    8664:	92 10 20 04 	mov  4, %o1
    8668:	94 10 20 01 	mov  1, %o2
    866c:	96 10 20 00 	clr  %o3
    8670:	9a 05 61 48 	add  %l5, 0x148, %o5
    8674:	e4 73 a8 af 	stx  %l2, [ %sp + 0x8af ]
    8678:	7f ff fc 9a 	call  78e0 <ofw_call>
    867c:	e6 73 a8 b7 	stx  %l3, [ %sp + 0x8b7 ]
    8680:	80 a2 20 00 	cmp  %o0, 0
    8684:	24 40 00 6a 	ble,a,pn   %icc, 882c <ofw_memmap+0x24c>
    8688:	03 00 00 27 	sethi  %hi(0x9c00), %g1
    868c:	e6 07 a7 fb 	ld  [ %fp + 0x7fb ], %l3
    8690:	a7 34 e0 01 	srl  %l3, 1, %l3
    8694:	a4 04 c0 14 	add  %l3, %l4, %l2
    8698:	83 2c a0 05 	sll  %l2, 5, %g1
    869c:	83 30 60 00 	srl  %g1, 0, %g1
    86a0:	a2 04 40 04 	add  %l1, %g4, %l1
    86a4:	83 28 70 03 	sllx  %g1, 3, %g1
    86a8:	9c 23 80 01 	sub  %sp, %g1, %sp
    86ac:	d8 04 62 48 	ld  [ %l1 + 0x248 ], %o4
    86b0:	1b 00 00 25 	sethi  %hi(0x9400), %o5
    86b4:	9a 03 40 04 	add  %o5, %g4, %o5
    86b8:	90 04 00 04 	add  %l0, %g4, %o0
    86bc:	a2 03 a8 ce 	add  %sp, 0x8ce, %l1
    86c0:	83 2c a0 08 	sll  %l2, 8, %g1
    86c4:	83 38 60 00 	sra  %g1, 0, %g1
    86c8:	a2 0c 7f f0 	and  %l1, -16, %l1
    86cc:	90 02 21 40 	add  %o0, 0x140, %o0
    86d0:	9a 03 63 00 	add  %o5, 0x300, %o5
    86d4:	92 10 20 04 	mov  4, %o1
    86d8:	94 10 20 01 	mov  1, %o2
    86dc:	96 10 20 00 	clr  %o3
    86e0:	c2 73 a8 b7 	stx  %g1, [ %sp + 0x8b7 ]
    86e4:	7f ff fc 7f 	call  78e0 <ofw_call>
    86e8:	e2 73 a8 af 	stx  %l1, [ %sp + 0x8af ]
    86ec:	80 a2 20 00 	cmp  %o0, 0
    86f0:	04 40 00 4d 	ble,pn   %icc, 8824 <ofw_memmap+0x244>
    86f4:	82 10 20 00 	clr  %g1
    86f8:	97 3a 20 00 	sra  %o0, 0, %o3
    86fc:	97 32 f0 03 	srlx  %o3, 3, %o3
    8700:	02 c2 c0 48 	brz,pn   %o3, 8820 <ofw_memmap+0x240>
    8704:	c0 76 00 00 	clrx  [ %i0 ]
    8708:	82 04 bf ff 	add  %l2, -1, %g1
    870c:	83 30 60 00 	srl  %g1, 0, %g1
    8710:	a8 05 3f ff 	add  %l4, -1, %l4
    8714:	83 28 70 03 	sllx  %g1, 3, %g1
    8718:	c4 5c 40 01 	ldx  [ %l1 + %g1 ], %g2
    871c:	83 35 20 00 	srl  %l4, 0, %g1
    8720:	a6 05 00 13 	add  %l4, %l3, %l3
    8724:	83 28 70 03 	sllx  %g1, 3, %g1
    8728:	ca 5c 40 01 	ldx  [ %l1 + %g1 ], %g5
    872c:	a6 04 c0 12 	add  %l3, %l2, %l3
    8730:	a8 04 80 14 	add  %l2, %l4, %l4
    8734:	86 10 00 12 	mov  %l2, %g3
    8738:	9a 10 20 00 	clr  %o5
    873c:	10 68 00 1e 	b  %xcc, 87b4 <ofw_memmap+0x1d4>
    8740:	82 10 20 00 	clr  %g1
    8744:	82 10 00 0d 	mov  %o5, %g1
    8748:	9a 00 7f ff 	add  %g1, -1, %o5
    874c:	85 34 e0 00 	srl  %l3, 0, %g2
    8750:	8b 38 e0 00 	sra  %g3, 0, %g5
    8754:	9b 33 60 00 	srl  %o5, 0, %o5
    8758:	9b 2b 70 04 	sllx  %o5, 4, %o5
    875c:	99 28 b0 03 	sllx  %g2, 3, %o4
    8760:	80 a1 40 0b 	cmp  %g5, %o3
    8764:	85 35 20 00 	srl  %l4, 0, %g2
    8768:	9a 06 00 0d 	add  %i0, %o5, %o5
    876c:	1a 60 00 2d 	bcc,pn   %xcc, 8820 <ofw_memmap+0x240>
    8770:	8b 28 b0 03 	sllx  %g2, 3, %g5
    8774:	80 a0 60 1f 	cmp  %g1, 0x1f
    8778:	18 40 00 2a 	bgu,pn   %icc, 8820 <ofw_memmap+0x240>
    877c:	80 a0 60 00 	cmp  %g1, 0
    8780:	86 00 c0 12 	add  %g3, %l2, %g3
    8784:	c4 5c 40 0c 	ldx  [ %l1 + %o4 ], %g2
    8788:	02 40 00 08 	be,pn   %icc, 87a8 <ofw_memmap+0x1c8>
    878c:	ca 5c 40 05 	ldx  [ %l1 + %g5 ], %g5
    8790:	d8 5b 60 08 	ldx  [ %o5 + 8 ], %o4
    8794:	da 03 60 10 	ld  [ %o5 + 0x10 ], %o5
    8798:	9a 03 00 0d 	add  %o4, %o5, %o5
    879c:	80 a1 40 0d 	cmp  %g5, %o5
    87a0:	38 60 00 21 	bgu,a,pn   %xcc, 8824 <ofw_memmap+0x244>
    87a4:	82 10 20 01 	mov  1, %g1
    87a8:	a8 05 00 12 	add  %l4, %l2, %l4
    87ac:	a6 04 c0 12 	add  %l3, %l2, %l3
    87b0:	9a 10 00 01 	mov  %g1, %o5
    87b4:	80 a0 a0 00 	cmp  %g2, 0
    87b8:	02 4f ff e3 	be  %icc, 8744 <ofw_memmap+0x164>
    87bc:	83 30 60 00 	srl  %g1, 0, %g1
    87c0:	da 06 20 04 	ld  [ %i0 + 4 ], %o5
    87c4:	9b 2b 70 04 	sllx  %o5, 4, %o5
    87c8:	9a 06 00 0d 	add  %i0, %o5, %o5
    87cc:	c4 23 60 10 	st  %g2, [ %o5 + 0x10 ]
    87d0:	d8 06 20 04 	ld  [ %i0 + 4 ], %o4
    87d4:	d4 06 00 00 	ld  [ %i0 ], %o2
    87d8:	9b 28 70 04 	sllx  %g1, 4, %o5
    87dc:	9a 06 00 0d 	add  %i0, %o5, %o5
    87e0:	82 03 20 01 	add  %o4, 1, %g1
    87e4:	84 02 80 02 	add  %o2, %g2, %g2
    87e8:	ca 73 60 08 	stx  %g5, [ %o5 + 8 ]
    87ec:	9a 00 7f ff 	add  %g1, -1, %o5
    87f0:	8b 38 e0 00 	sra  %g3, 0, %g5
    87f4:	c4 26 00 00 	st  %g2, [ %i0 ]
    87f8:	9b 33 60 00 	srl  %o5, 0, %o5
    87fc:	85 34 e0 00 	srl  %l3, 0, %g2
    8800:	9b 2b 70 04 	sllx  %o5, 4, %o5
    8804:	99 28 b0 03 	sllx  %g2, 3, %o4
    8808:	80 a1 40 0b 	cmp  %g5, %o3
    880c:	85 35 20 00 	srl  %l4, 0, %g2
    8810:	c2 26 20 04 	st  %g1, [ %i0 + 4 ]
    8814:	9a 06 00 0d 	add  %i0, %o5, %o5
    8818:	0a 6f ff d7 	bcs  %xcc, 8774 <ofw_memmap+0x194>
    881c:	8b 28 b0 03 	sllx  %g2, 3, %g5
    8820:	82 10 20 01 	mov  1, %g1
    8824:	81 cf e0 08 	rett  %i7 + 8
    8828:	91 38 60 00 	sra  %g1, 0, %o0
    882c:	82 00 40 04 	add  %g1, %g4, %g1
    8830:	d8 00 62 4c 	ld  [ %g1 + 0x24c ], %o4
    8834:	90 05 a1 40 	add  %l6, 0x140, %o0
    8838:	9a 05 61 48 	add  %l5, 0x148, %o5
    883c:	92 10 20 04 	mov  4, %o1
    8840:	94 10 20 01 	mov  1, %o2
    8844:	96 10 20 00 	clr  %o3
    8848:	e4 73 a8 af 	stx  %l2, [ %sp + 0x8af ]
    884c:	7f ff fc 25 	call  78e0 <ofw_call>
    8850:	e6 73 a8 b7 	stx  %l3, [ %sp + 0x8b7 ]
    8854:	80 a2 20 00 	cmp  %o0, 0
    8858:	34 4f ff 8e 	bg,a   %icc, 8690 <ofw_memmap+0xb0>
    885c:	e6 07 a7 fb 	ld  [ %fp + 0x7fb ], %l3
    8860:	82 10 20 02 	mov  2, %g1
    8864:	c2 27 a7 fb 	st  %g1, [ %fp + 0x7fb ]
    8868:	10 6f ff 8b 	b  %xcc, 8694 <ofw_memmap+0xb4>
    886c:	a6 10 20 01 	mov  1, %l3
    8870:	82 00 40 04 	add  %g1, %g4, %g1
    8874:	d8 00 62 4c 	ld  [ %g1 + 0x24c ], %o4
    8878:	90 05 61 40 	add  %l5, 0x140, %o0
    887c:	9a 05 21 58 	add  %l4, 0x158, %o5
    8880:	92 10 20 04 	mov  4, %o1
    8884:	94 10 20 01 	mov  1, %o2
    8888:	96 10 20 00 	clr  %o3
    888c:	e6 73 a8 b7 	stx  %l3, [ %sp + 0x8b7 ]
    8890:	7f ff fc 14 	call  78e0 <ofw_call>
    8894:	e4 73 a8 af 	stx  %l2, [ %sp + 0x8af ]
    8898:	80 a2 20 00 	cmp  %o0, 0
    889c:	34 4f ff 6a 	bg,a   %icc, 8644 <ofw_memmap+0x64>
    88a0:	e8 07 a7 fb 	ld  [ %fp + 0x7fb ], %l4
    88a4:	82 10 20 02 	mov  2, %g1
    88a8:	c2 27 a7 fb 	st  %g1, [ %fp + 0x7fb ]
    88ac:	10 6f ff 67 	b  %xcc, 8648 <ofw_memmap+0x68>
    88b0:	a8 10 20 01 	mov  1, %l4
    88b4:	30 68 00 03 	b,a   %xcc, 88c0 <ofw_tree_node_process>
    88b8:	01 00 00 00 	nop 
    88bc:	01 00 00 00 	nop 

00000000000088c0 <ofw_tree_node_process>:
    88c0:	9d e3 bf 50 	save  %sp, -176, %sp
    88c4:	02 c6 00 9b 	brz,pn   %i0, 8b30 <ofw_tree_node_process+0x270>
    88c8:	29 00 00 25 	sethi  %hi(0x9400), %l4
    88cc:	a8 05 00 04 	add  %l4, %g4, %l4
    88d0:	a8 05 23 d8 	add  %l4, 0x3d8, %l4
    88d4:	f2 76 00 00 	stx  %i1, [ %i0 ]
    88d8:	c0 76 20 08 	clrx  [ %i0 + 8 ]
    88dc:	c0 76 20 10 	clrx  [ %i0 + 0x10 ]
    88e0:	f4 26 20 18 	st  %i2, [ %i0 + 0x18 ]
    88e4:	c0 26 20 28 	clr  [ %i0 + 0x28 ]
    88e8:	c0 76 20 30 	clrx  [ %i0 + 0x30 ]
    88ec:	c0 76 20 38 	clrx  [ %i0 + 0x38 ]
    88f0:	90 10 00 1a 	mov  %i2, %o0
    88f4:	92 10 00 14 	mov  %l4, %o1
    88f8:	7f ff fd 12 	call  7d40 <ofw_package_to_path>
    88fc:	94 10 21 00 	mov  0x100, %o2
    8900:	21 00 00 25 	sethi  %hi(0x9400), %l0
    8904:	a3 3a 20 00 	sra  %o0, 0, %l1
    8908:	a0 04 00 04 	add  %l0, %g4, %l0
    890c:	80 a4 7f ff 	cmp  %l1, -1
    8910:	a0 04 23 b8 	add  %l0, 0x3b8, %l0
    8914:	02 60 00 87 	be,pn   %xcc, 8b30 <ofw_tree_node_process+0x270>
    8918:	aa 10 00 14 	mov  %l4, %l5
    891c:	a4 84 7f ff 	addcc  %l1, -1, %l2
    8920:	0c 40 00 11 	bneg,pn   %icc, 8964 <ofw_tree_node_process+0xa4>
    8924:	c0 2d 00 11 	clrb  [ %l4 + %l1 ]
    8928:	83 3c a0 00 	sra  %l2, 0, %g1
    892c:	c2 4d 40 01 	ldsb  [ %l5 + %g1 ], %g1
    8930:	80 a0 60 2f 	cmp  %g1, 0x2f
    8934:	02 40 00 0c 	be,pn   %icc, 8964 <ofw_tree_node_process+0xa4>
    8938:	90 02 3f fe 	add  %o0, -2, %o0
    893c:	10 68 00 07 	b  %xcc, 8958 <ofw_tree_node_process+0x98>
    8940:	80 a2 20 00 	cmp  %o0, 0
    8944:	c2 4d 00 01 	ldsb  [ %l4 + %g1 ], %g1
    8948:	80 a0 60 2f 	cmp  %g1, 0x2f
    894c:	02 40 00 06 	be,pn   %icc, 8964 <ofw_tree_node_process+0xa4>
    8950:	90 02 3f ff 	add  %o0, -1, %o0
    8954:	80 a2 20 00 	cmp  %o0, 0
    8958:	a4 10 00 08 	mov  %o0, %l2
    895c:	16 4f ff fa 	bge  %icc, 8944 <ofw_tree_node_process+0x84>
    8960:	83 3a 20 00 	sra  %o0, 0, %g1
    8964:	a4 04 a0 01 	inc  %l2
    8968:	a5 3c a0 00 	sra  %l2, 0, %l2
    896c:	a2 24 40 12 	sub  %l1, %l2, %l1
    8970:	a6 04 60 01 	add  %l1, 1, %l3
    8974:	90 04 60 02 	add  %l1, 2, %o0
    8978:	7f ff fb c2 	call  7880 <balloc>
    897c:	92 10 00 13 	mov  %l3, %o1
    8980:	02 c2 00 8a 	brz,pn   %o0, 8ba8 <ofw_tree_node_process+0x2e8>
    8984:	92 05 00 12 	add  %l4, %l2, %o1
    8988:	c0 2a 00 13 	clrb  [ %o0 + %l3 ]
    898c:	94 10 00 11 	mov  %l1, %o2
    8990:	40 00 01 a6 	call  9028 <memcpy>
    8994:	d0 76 20 20 	stx  %o0, [ %i0 + 0x20 ]
    8998:	c2 5e 20 20 	ldx  [ %i0 + 0x20 ], %g1
    899c:	90 10 00 1a 	mov  %i2, %o0
    89a0:	7f ff fc d8 	call  7d00 <ofw_get_child_node>
    89a4:	c0 28 40 11 	clrb  [ %g1 + %l1 ]
    89a8:	82 02 3f ff 	add  %o0, -1, %g1
    89ac:	80 a0 7f fd 	cmp  %g1, -3
    89b0:	08 40 00 62 	bleu,pn   %icc, 8b38 <ofw_tree_node_process+0x278>
    89b4:	a4 10 00 08 	mov  %o0, %l2
    89b8:	10 68 00 04 	b  %xcc, 89c8 <ofw_tree_node_process+0x108>
    89bc:	c0 2c 00 00 	clrb  [ %l0 ]
    89c0:	82 00 60 01 	inc  %g1
    89c4:	c2 26 20 28 	st  %g1, [ %i0 + 0x28 ]
    89c8:	90 10 00 1a 	mov  %i2, %o0
    89cc:	92 10 00 10 	mov  %l0, %o1
    89d0:	7f ff fc ec 	call  7d80 <ofw_next_property>
    89d4:	94 10 00 10 	mov  %l0, %o2
    89d8:	80 a2 20 01 	cmp  %o0, 1
    89dc:	22 4f ff f9 	be,a   %icc, 89c0 <ofw_tree_node_process+0x100>
    89e0:	c2 06 20 28 	ld  [ %i0 + 0x28 ], %g1
    89e4:	d0 06 20 28 	ld  [ %i0 + 0x28 ], %o0
    89e8:	80 a2 20 00 	cmp  %o0, 0
    89ec:	02 40 00 51 	be,pn   %icc, 8b30 <ofw_tree_node_process+0x270>
    89f0:	90 52 20 30 	umul  %o0, 0x30, %o0
    89f4:	7f ff fb a3 	call  7880 <balloc>
    89f8:	92 10 20 30 	mov  0x30, %o1
    89fc:	02 c2 00 4d 	brz,pn   %o0, 8b30 <ofw_tree_node_process+0x270>
    8a00:	d0 76 20 30 	stx  %o0, [ %i0 + 0x30 ]
    8a04:	92 10 00 10 	mov  %l0, %o1
    8a08:	c0 2c 00 00 	clrb  [ %l0 ]
    8a0c:	94 10 00 10 	mov  %l0, %o2
    8a10:	7f ff fc dc 	call  7d80 <ofw_next_property>
    8a14:	90 10 00 1a 	mov  %i2, %o0
    8a18:	80 a2 20 01 	cmp  %o0, 1
    8a1c:	a2 10 20 00 	clr  %l1
    8a20:	a6 10 20 00 	clr  %l3
    8a24:	92 10 00 10 	mov  %l0, %o1
    8a28:	12 40 00 24 	bne,pn   %icc, 8ab8 <ofw_tree_node_process+0x1f8>
    8a2c:	90 10 00 1a 	mov  %i2, %o0
    8a30:	c2 06 20 28 	ld  [ %i0 + 0x28 ], %g1
    8a34:	80 a0 40 13 	cmp  %g1, %l3
    8a38:	22 40 00 22 	be,a,pn   %icc, 8ac0 <ofw_tree_node_process+0x200>
    8a3c:	c2 26 20 28 	st  %g1, [ %i0 + 0x28 ]
    8a40:	c2 5e 20 30 	ldx  [ %i0 + 0x30 ], %g1
    8a44:	c4 5c 00 00 	ldx  [ %l0 ], %g2
    8a48:	c4 70 40 11 	stx  %g2, [ %g1 + %l1 ]
    8a4c:	c4 5c 20 08 	ldx  [ %l0 + 8 ], %g2
    8a50:	82 00 40 11 	add  %g1, %l1, %g1
    8a54:	c4 70 60 08 	stx  %g2, [ %g1 + 8 ]
    8a58:	c4 5c 20 10 	ldx  [ %l0 + 0x10 ], %g2
    8a5c:	c4 70 60 10 	stx  %g2, [ %g1 + 0x10 ]
    8a60:	c4 5c 20 18 	ldx  [ %l0 + 0x18 ], %g2
    8a64:	c4 70 60 18 	stx  %g2, [ %g1 + 0x18 ]
    8a68:	c2 5e 20 30 	ldx  [ %i0 + 0x30 ], %g1
    8a6c:	82 00 40 11 	add  %g1, %l1, %g1
    8a70:	7f ff fc d4 	call  7dc0 <ofw_get_proplen>
    8a74:	c0 28 60 20 	clrb  [ %g1 + 0x20 ]
    8a78:	c2 5e 20 30 	ldx  [ %i0 + 0x30 ], %g1
    8a7c:	a5 3a 20 00 	sra  %o0, 0, %l2
    8a80:	82 00 40 11 	add  %g1, %l1, %g1
    8a84:	0a c4 80 37 	brnz,pn   %l2, 8b60 <ofw_tree_node_process+0x2a0>
    8a88:	e4 70 60 20 	stx  %l2, [ %g1 + 0x20 ]
    8a8c:	c0 70 60 28 	clrx  [ %g1 + 0x28 ]
    8a90:	a6 04 e0 01 	inc  %l3
    8a94:	a2 04 60 30 	add  %l1, 0x30, %l1
    8a98:	92 10 00 10 	mov  %l0, %o1
    8a9c:	94 10 00 10 	mov  %l0, %o2
    8aa0:	7f ff fc b8 	call  7d80 <ofw_next_property>
    8aa4:	90 10 00 1a 	mov  %i2, %o0
    8aa8:	80 a2 20 01 	cmp  %o0, 1
    8aac:	92 10 00 10 	mov  %l0, %o1
    8ab0:	02 4f ff e0 	be  %icc, 8a30 <ofw_tree_node_process+0x170>
    8ab4:	90 10 00 1a 	mov  %i2, %o0
    8ab8:	82 10 00 13 	mov  %l3, %g1
    8abc:	c2 26 20 28 	st  %g1, [ %i0 + 0x28 ]
    8ac0:	7f ff fc 80 	call  7cc0 <ofw_get_peer_node>
    8ac4:	90 10 00 1a 	mov  %i2, %o0
    8ac8:	82 02 3f ff 	add  %o0, -1, %g1
    8acc:	80 a0 7f fd 	cmp  %g1, -3
    8ad0:	18 40 00 18 	bgu,pn   %icc, 8b30 <ofw_tree_node_process+0x270>
    8ad4:	b4 10 00 08 	mov  %o0, %i2
    8ad8:	90 10 20 40 	mov  0x40, %o0
    8adc:	7f ff fb 69 	call  7880 <balloc>
    8ae0:	92 10 20 40 	mov  0x40, %o1
    8ae4:	02 c2 00 13 	brz,pn   %o0, 8b30 <ofw_tree_node_process+0x270>
    8ae8:	b5 36 a0 00 	srl  %i2, 0, %i2
    8aec:	d0 76 20 08 	stx  %o0, [ %i0 + 8 ]
    8af0:	b0 10 00 08 	mov  %o0, %i0
    8af4:	f2 76 00 00 	stx  %i1, [ %i0 ]
    8af8:	c0 76 20 08 	clrx  [ %i0 + 8 ]
    8afc:	c0 76 20 10 	clrx  [ %i0 + 0x10 ]
    8b00:	f4 26 20 18 	st  %i2, [ %i0 + 0x18 ]
    8b04:	c0 26 20 28 	clr  [ %i0 + 0x28 ]
    8b08:	c0 76 20 30 	clrx  [ %i0 + 0x30 ]
    8b0c:	c0 76 20 38 	clrx  [ %i0 + 0x38 ]
    8b10:	90 10 00 1a 	mov  %i2, %o0
    8b14:	92 10 00 14 	mov  %l4, %o1
    8b18:	7f ff fc 8a 	call  7d40 <ofw_package_to_path>
    8b1c:	94 10 21 00 	mov  0x100, %o2
    8b20:	a3 3a 20 00 	sra  %o0, 0, %l1
    8b24:	80 a4 7f ff 	cmp  %l1, -1
    8b28:	12 6f ff 7e 	bne  %xcc, 8920 <ofw_tree_node_process+0x60>
    8b2c:	a4 84 7f ff 	addcc  %l1, -1, %l2
    8b30:	81 cf e0 08 	rett  %i7 + 8
    8b34:	01 00 00 00 	nop 
    8b38:	90 10 20 40 	mov  0x40, %o0	! 40 <start-0x3fc0>
    8b3c:	7f ff fb 51 	call  7880 <balloc>
    8b40:	92 10 20 40 	mov  0x40, %o1
    8b44:	02 f2 3f 9d 	brz,pn   %o0, 89b8 <ofw_tree_node_process+0xf8>
    8b48:	a2 10 00 08 	mov  %o0, %l1
    8b4c:	95 34 a0 00 	srl  %l2, 0, %o2
    8b50:	7f ff ff 5c 	call  88c0 <ofw_tree_node_process>
    8b54:	92 10 00 18 	mov  %i0, %o1
    8b58:	10 6f ff 98 	b  %xcc, 89b8 <ofw_tree_node_process+0xf8>
    8b5c:	e2 76 20 10 	stx  %l1, [ %i0 + 0x10 ]
    8b60:	92 10 00 12 	mov  %l2, %o1
    8b64:	7f ff fb 47 	call  7880 <balloc>
    8b68:	90 04 a0 01 	add  %l2, 1, %o0
    8b6c:	82 10 00 08 	mov  %o0, %g1
    8b70:	94 10 00 08 	mov  %o0, %o2
    8b74:	96 10 00 12 	mov  %l2, %o3
    8b78:	90 10 00 1a 	mov  %i2, %o0
    8b7c:	02 c0 40 03 	brz,pn   %g1, 8b88 <ofw_tree_node_process+0x2c8>
    8b80:	92 10 00 10 	mov  %l0, %o1
    8b84:	c0 28 40 12 	clrb  [ %g1 + %l2 ]
    8b88:	c4 5e 20 30 	ldx  [ %i0 + 0x30 ], %g2
    8b8c:	84 00 80 11 	add  %g2, %l1, %g2
    8b90:	02 f0 7f c0 	brz,pn   %g1, 8a90 <ofw_tree_node_process+0x1d0>
    8b94:	c2 70 a0 28 	stx  %g1, [ %g2 + 0x28 ]
    8b98:	7f ff fc 9a 	call  7e00 <ofw_get_property>
    8b9c:	a6 04 e0 01 	inc  %l3
    8ba0:	10 6f ff be 	b  %xcc, 8a98 <ofw_tree_node_process+0x1d8>
    8ba4:	a2 04 60 30 	add  %l1, 0x30, %l1
    8ba8:	c0 76 20 20 	clrx  [ %i0 + 0x20 ]
    8bac:	81 cf e0 08 	rett  %i7 + 8
    8bb0:	01 00 00 00 	nop 
    8bb4:	30 68 00 03 	b,a   %xcc, 8bc0 <ofw_tree_build>
    8bb8:	01 00 00 00 	nop 
    8bbc:	01 00 00 00 	nop 

0000000000008bc0 <ofw_tree_build>:
    8bc0:	9d e3 bf 50 	save  %sp, -176, %sp
    8bc4:	90 10 20 40 	mov  0x40, %o0
    8bc8:	7f ff fb 2e 	call  7880 <balloc>
    8bcc:	92 10 20 40 	mov  0x40, %o1
    8bd0:	02 c2 00 07 	brz,pn   %o0, 8bec <ofw_tree_build+0x2c>
    8bd4:	b0 10 00 08 	mov  %o0, %i0
    8bd8:	03 00 00 27 	sethi  %hi(0x9c00), %g1
    8bdc:	82 00 40 04 	add  %g1, %g4, %g1
    8be0:	d4 00 62 4c 	ld  [ %g1 + 0x24c ], %o2
    8be4:	7f ff ff 37 	call  88c0 <ofw_tree_node_process>
    8be8:	92 10 20 00 	clr  %o1
    8bec:	23 00 00 25 	sethi  %hi(0x9400), %l1
    8bf0:	a2 04 40 04 	add  %l1, %g4, %l1
    8bf4:	7f ff fc e3 	call  7f80 <ofw_find_device>
    8bf8:	90 04 63 08 	add  %l1, 0x308, %o0
    8bfc:	80 a2 3f ff 	cmp  %o0, -1
    8c00:	02 40 00 0f 	be,pn   %icc, 8c3c <ofw_tree_build+0x7c>
    8c04:	90 10 20 40 	mov  0x40, %o0
    8c08:	7f ff fb 1e 	call  7880 <balloc>
    8c0c:	92 10 20 40 	mov  0x40, %o1
    8c10:	02 c2 00 0b 	brz,pn   %o0, 8c3c <ofw_tree_build+0x7c>
    8c14:	a0 10 00 08 	mov  %o0, %l0
    8c18:	7f ff fc da 	call  7f80 <ofw_find_device>
    8c1c:	90 04 63 08 	add  %l1, 0x308, %o0
    8c20:	92 10 00 18 	mov  %i0, %o1
    8c24:	95 32 20 00 	srl  %o0, 0, %o2
    8c28:	7f ff ff 26 	call  88c0 <ofw_tree_node_process>
    8c2c:	90 10 00 10 	mov  %l0, %o0
    8c30:	c2 5e 20 10 	ldx  [ %i0 + 0x10 ], %g1
    8c34:	e0 76 20 10 	stx  %l0, [ %i0 + 0x10 ]
    8c38:	c2 74 20 08 	stx  %g1, [ %l0 + 8 ]
    8c3c:	81 cf e0 08 	rett  %i7 + 8
    8c40:	01 00 00 00 	nop 
    8c44:	30 68 00 07 	b,a   %xcc, 8c60 <ofw_translate_failed>
    8c48:	01 00 00 00 	nop 
    8c4c:	01 00 00 00 	nop 
    8c50:	01 00 00 00 	nop 
    8c54:	01 00 00 00 	nop 
    8c58:	01 00 00 00 	nop 
    8c5c:	01 00 00 00 	nop 

0000000000008c60 <ofw_translate_failed>:
    8c60:	82 38 00 08 	xnor  %g0, %o0, %g1
    8c64:	90 10 20 00 	clr  %o0
    8c68:	81 c3 e0 08 	retl 
    8c6c:	91 78 74 01 	movrne  %g1, 1, %o0
    8c70:	30 68 00 04 	b,a   %xcc, 8c80 <ofw_get_physmem_start>
    8c74:	01 00 00 00 	nop 
    8c78:	01 00 00 00 	nop 
    8c7c:	01 00 00 00 	nop 

0000000000008c80 <ofw_get_physmem_start>:
    8c80:	9d e3 bf 40 	save  %sp, -192, %sp
    8c84:	03 00 00 27 	sethi  %hi(0x9c00), %g1
    8c88:	82 00 40 04 	add  %g1, %g4, %g1
    8c8c:	d0 00 62 48 	ld  [ %g1 + 0x248 ], %o0
    8c90:	13 00 00 25 	sethi  %hi(0x9400), %o1
    8c94:	92 02 40 04 	add  %o1, %g4, %o1
    8c98:	92 02 63 00 	add  %o1, 0x300, %o1
    8c9c:	94 07 a7 ef 	add  %fp, 0x7ef, %o2
    8ca0:	7f ff fc 58 	call  7e00 <ofw_get_property>
    8ca4:	96 10 20 10 	mov  0x10, %o3
    8ca8:	80 a2 20 00 	cmp  %o0, 0
    8cac:	04 40 00 05 	ble,pn   %icc, 8cc0 <ofw_get_physmem_start+0x40>
    8cb0:	82 10 20 00 	clr  %g1
    8cb4:	c2 07 a7 ef 	ld  [ %fp + 0x7ef ], %g1
    8cb8:	c2 76 00 00 	stx  %g1, [ %i0 ]
    8cbc:	82 10 20 01 	mov  1, %g1
    8cc0:	81 cf e0 08 	rett  %i7 + 8
    8cc4:	91 38 60 00 	sra  %g1, 0, %o0
    8cc8:	30 68 00 06 	b,a   %xcc, 8ce0 <wake_cpus_in_node>
    8ccc:	01 00 00 00 	nop 
    8cd0:	01 00 00 00 	nop 
    8cd4:	01 00 00 00 	nop 
    8cd8:	01 00 00 00 	nop 
    8cdc:	01 00 00 00 	nop 

0000000000008ce0 <wake_cpus_in_node>:
    8ce0:	9d e3 bb 30 	save  %sp, -1232, %sp
    8ce4:	82 06 3f ff 	add  %i0, -1, %g1
    8ce8:	80 a0 7f fd 	cmp  %g1, -3
    8cec:	a0 10 20 00 	clr  %l0
    8cf0:	18 40 00 48 	bgu,pn   %icc, 8e10 <wake_cpus_in_node+0x130>
    8cf4:	a2 07 a3 f7 	add  %fp, 0x3f7, %l1
    8cf8:	27 00 00 25 	sethi  %hi(0x9400), %l3
    8cfc:	25 00 00 25 	sethi  %hi(0x9400), %l2
    8d00:	2b 00 00 25 	sethi  %hi(0x9400), %l5
    8d04:	2f 00 00 26 	sethi  %hi(0x9800), %l7
    8d08:	2d 00 00 25 	sethi  %hi(0x9400), %l6
    8d0c:	3b 00 00 25 	sethi  %hi(0x9400), %i5
    8d10:	39 00 00 25 	sethi  %hi(0x9400), %i4
    8d14:	a6 04 c0 04 	add  %l3, %g4, %l3
    8d18:	a4 04 80 04 	add  %l2, %g4, %l2
    8d1c:	aa 05 40 04 	add  %l5, %g4, %l5
    8d20:	ae 05 c0 04 	add  %l7, %g4, %l7
    8d24:	ac 05 80 04 	add  %l6, %g4, %l6
    8d28:	ba 07 40 04 	add  %i5, %g4, %i5
    8d2c:	b8 07 00 04 	add  %i4, %g4, %i4
    8d30:	a6 04 e3 18 	add  %l3, 0x318, %l3
    8d34:	a4 04 a3 28 	add  %l2, 0x328, %l2
    8d38:	aa 05 63 30 	add  %l5, 0x330, %l5
    8d3c:	ae 05 e2 00 	add  %l7, 0x200, %l7
    8d40:	ac 05 a3 50 	add  %l6, 0x350, %l6
    8d44:	ba 07 63 40 	add  %i5, 0x340, %i5
    8d48:	b8 07 23 48 	add  %i4, 0x348, %i4
    8d4c:	10 68 00 09 	b  %xcc, 8d70 <wake_cpus_in_node+0x90>
    8d50:	a8 07 a7 fb 	add  %fp, 0x7fb, %l4
    8d54:	7f ff fb db 	call  7cc0 <ofw_get_peer_node>
    8d58:	90 10 00 18 	mov  %i0, %o0
    8d5c:	82 02 3f ff 	add  %o0, -1, %g1
    8d60:	80 a0 7f fd 	cmp  %g1, -3
    8d64:	a0 04 20 01 	inc  %l0
    8d68:	18 40 00 2a 	bgu,pn   %icc, 8e10 <wake_cpus_in_node+0x130>
    8d6c:	b0 10 00 08 	mov  %o0, %i0
    8d70:	92 10 00 13 	mov  %l3, %o1
    8d74:	94 10 00 11 	mov  %l1, %o2
    8d78:	96 10 24 00 	mov  0x400, %o3
    8d7c:	7f ff fc 21 	call  7e00 <ofw_get_property>
    8d80:	90 10 00 18 	mov  %i0, %o0
    8d84:	80 a2 20 00 	cmp  %o0, 0
    8d88:	92 10 00 12 	mov  %l2, %o1
    8d8c:	04 47 ff f2 	ble,pn   %icc, 8d54 <wake_cpus_in_node+0x74>
    8d90:	90 10 00 11 	mov  %l1, %o0
    8d94:	7f ff f9 33 	call  7260 <strcmp>
    8d98:	01 00 00 00 	nop 
    8d9c:	80 a2 20 00 	cmp  %o0, 0
    8da0:	12 4f ff ed 	bne  %icc, 8d54 <wake_cpus_in_node+0x74>
    8da4:	92 10 00 15 	mov  %l5, %o1
    8da8:	94 10 00 14 	mov  %l4, %o2
    8dac:	96 10 20 04 	mov  4, %o3
    8db0:	7f ff fc 14 	call  7e00 <ofw_get_property>
    8db4:	90 10 00 18 	mov  %i0, %o0
    8db8:	80 a2 20 00 	cmp  %o0, 0
    8dbc:	04 40 00 18 	ble,pn   %icc, 8e1c <wake_cpus_in_node+0x13c>
    8dc0:	92 10 00 1d 	mov  %i5, %o1
    8dc4:	c2 07 a7 fb 	ld  [ %fp + 0x7fb ], %g1
    8dc8:	80 a0 40 19 	cmp  %g1, %i1
    8dcc:	92 10 20 03 	mov  3, %o1
    8dd0:	94 10 20 01 	mov  1, %o2
    8dd4:	96 10 20 00 	clr  %o3
    8dd8:	98 10 00 18 	mov  %i0, %o4
    8ddc:	1b 00 10 00 	sethi  %hi(0x400000), %o5
    8de0:	02 67 ff dd 	be,pn   %xcc, 8d54 <wake_cpus_in_node+0x74>
    8de4:	90 10 00 16 	mov  %l6, %o0
    8de8:	c2 5d c0 00 	ldx  [ %l7 ], %g1
    8dec:	7f ff fa bd 	call  78e0 <ofw_call>
    8df0:	c2 73 a8 af 	stx  %g1, [ %sp + 0x8af ]
    8df4:	7f ff fb b3 	call  7cc0 <ofw_get_peer_node>
    8df8:	90 10 00 18 	mov  %i0, %o0
    8dfc:	82 02 3f ff 	add  %o0, -1, %g1
    8e00:	80 a0 7f fd 	cmp  %g1, -3
    8e04:	a0 04 20 01 	inc  %l0
    8e08:	08 4f ff da 	bleu  %icc, 8d70 <wake_cpus_in_node+0x90>
    8e0c:	b0 10 00 08 	mov  %o0, %i0
    8e10:	b1 3c 20 00 	sra  %l0, 0, %i0
    8e14:	81 cf e0 08 	rett  %i7 + 8
    8e18:	01 00 00 00 	nop 
    8e1c:	94 10 00 14 	mov  %l4, %o2
    8e20:	96 10 20 04 	mov  4, %o3
    8e24:	7f ff fb f7 	call  7e00 <ofw_get_property>
    8e28:	90 10 00 18 	mov  %i0, %o0
    8e2c:	80 a2 20 00 	cmp  %o0, 0
    8e30:	14 4f ff e6 	bg  %icc, 8dc8 <wake_cpus_in_node+0xe8>
    8e34:	c2 07 a7 fb 	ld  [ %fp + 0x7fb ], %g1
    8e38:	92 10 00 1c 	mov  %i4, %o1
    8e3c:	94 10 00 14 	mov  %l4, %o2
    8e40:	96 10 20 04 	mov  4, %o3
    8e44:	7f ff fb ef 	call  7e00 <ofw_get_property>
    8e48:	90 10 00 18 	mov  %i0, %o0
    8e4c:	80 a2 20 00 	cmp  %o0, 0
    8e50:	14 4f ff de 	bg  %icc, 8dc8 <wake_cpus_in_node+0xe8>
    8e54:	c2 07 a7 fb 	ld  [ %fp + 0x7fb ], %g1
    8e58:	10 6f ff bf 	b  %xcc, 8d54 <wake_cpus_in_node+0x74>
    8e5c:	01 00 00 00 	nop 

0000000000008e60 <ofw_cpu>:
    8e60:	9d e3 bb 50 	save  %sp, -1200, %sp
    8e64:	a8 10 20 00 	clr  %l4
    8e68:	e8 dd 09 40 	ldxa  [ %l4 ] #ASI_UPA_CONFIG, %l4
    8e6c:	03 00 00 27 	sethi  %hi(0x9c00), %g1
    8e70:	82 00 40 04 	add  %g1, %g4, %g1
    8e74:	c2 10 62 30 	lduh  [ %g1 + 0x230 ], %g1
    8e78:	11 00 00 25 	sethi  %hi(0x9400), %o0
    8e7c:	90 02 00 04 	add  %o0, %g4, %o0
    8e80:	a9 35 30 11 	srlx  %l4, 0x11, %l4
    8e84:	90 02 23 08 	add  %o0, 0x308, %o0
    8e88:	7f ff fc 3e 	call  7f80 <ofw_find_device>
    8e8c:	a8 0d 00 01 	and  %l4, %g1, %l4
    8e90:	82 02 3f ff 	add  %o0, -1, %g1
    8e94:	80 a0 7f fd 	cmp  %g1, -3
    8e98:	38 40 00 37 	bgu,a,pn   %icc, 8f74 <ofw_cpu+0x114>
    8e9c:	11 00 00 24 	sethi  %hi(0x9000), %o0
    8ea0:	7f ff fb 98 	call  7d00 <ofw_get_child_node>
    8ea4:	91 32 20 00 	srl  %o0, 0, %o0
    8ea8:	a1 32 20 00 	srl  %o0, 0, %l0
    8eac:	aa 10 00 08 	mov  %o0, %l5
    8eb0:	92 10 00 14 	mov  %l4, %o1
    8eb4:	7f ff ff 8b 	call  8ce0 <wake_cpus_in_node>
    8eb8:	90 10 00 10 	mov  %l0, %o0
    8ebc:	aa 05 7f ff 	add  %l5, -1, %l5
    8ec0:	80 a5 7f fd 	cmp  %l5, -3
    8ec4:	18 40 00 2a 	bgu,pn   %icc, 8f6c <ofw_cpu+0x10c>
    8ec8:	b0 10 00 08 	mov  %o0, %i0
    8ecc:	27 00 00 25 	sethi  %hi(0x9400), %l3
    8ed0:	25 00 00 25 	sethi  %hi(0x9400), %l2
    8ed4:	a6 04 c0 04 	add  %l3, %g4, %l3
    8ed8:	a4 04 80 04 	add  %l2, %g4, %l2
    8edc:	a6 04 e3 60 	add  %l3, 0x360, %l3
    8ee0:	a4 04 a3 68 	add  %l2, 0x368, %l2
    8ee4:	10 68 00 08 	b  %xcc, 8f04 <ofw_cpu+0xa4>
    8ee8:	a2 07 a3 ff 	add  %fp, 0x3ff, %l1
    8eec:	7f ff fb 75 	call  7cc0 <ofw_get_peer_node>
    8ef0:	90 10 00 10 	mov  %l0, %o0
    8ef4:	82 02 3f ff 	add  %o0, -1, %g1
    8ef8:	80 a0 7f fd 	cmp  %g1, -3
    8efc:	18 40 00 1c 	bgu,pn   %icc, 8f6c <ofw_cpu+0x10c>
    8f00:	a1 32 20 00 	srl  %o0, 0, %l0
    8f04:	92 10 00 13 	mov  %l3, %o1
    8f08:	94 10 00 11 	mov  %l1, %o2
    8f0c:	96 10 24 00 	mov  0x400, %o3
    8f10:	7f ff fb bc 	call  7e00 <ofw_get_property>
    8f14:	90 10 00 10 	mov  %l0, %o0
    8f18:	80 a2 20 00 	cmp  %o0, 0
    8f1c:	92 10 00 12 	mov  %l2, %o1
    8f20:	04 47 ff f3 	ble,pn   %icc, 8eec <ofw_cpu+0x8c>
    8f24:	90 10 00 11 	mov  %l1, %o0
    8f28:	7f ff f8 ce 	call  7260 <strcmp>
    8f2c:	01 00 00 00 	nop 
    8f30:	80 a2 20 00 	cmp  %o0, 0
    8f34:	12 4f ff ee 	bne  %icc, 8eec <ofw_cpu+0x8c>
    8f38:	01 00 00 00 	nop 
    8f3c:	7f ff fb 71 	call  7d00 <ofw_get_child_node>
    8f40:	90 10 00 10 	mov  %l0, %o0
    8f44:	92 10 00 14 	mov  %l4, %o1
    8f48:	7f ff ff 66 	call  8ce0 <wake_cpus_in_node>
    8f4c:	91 32 20 00 	srl  %o0, 0, %o0
    8f50:	b0 06 00 08 	add  %i0, %o0, %i0
    8f54:	7f ff fb 5b 	call  7cc0 <ofw_get_peer_node>
    8f58:	90 10 00 10 	mov  %l0, %o0
    8f5c:	82 02 3f ff 	add  %o0, -1, %g1
    8f60:	80 a0 7f fd 	cmp  %g1, -3
    8f64:	08 4f ff e8 	bleu  %icc, 8f04 <ofw_cpu+0xa4>
    8f68:	a1 32 20 00 	srl  %o0, 0, %l0
    8f6c:	81 cf e0 08 	rett  %i7 + 8
    8f70:	91 3a 20 00 	sra  %o0, 0, %o0
    8f74:	90 02 00 04 	add  %o0, %g4, %o0
    8f78:	7f ff fc 02 	call  7f80 <ofw_find_device>
    8f7c:	90 02 21 58 	add  %o0, 0x158, %o0
    8f80:	10 6f ff c8 	b  %xcc, 8ea0 <ofw_cpu+0x40>
    8f84:	01 00 00 00 	nop 
    8f88:	30 68 00 06 	b,a   %xcc, 8fa0 <write>
    8f8c:	01 00 00 00 	nop 
    8f90:	01 00 00 00 	nop 
    8f94:	01 00 00 00 	nop 
    8f98:	01 00 00 00 	nop 
    8f9c:	01 00 00 00 	nop 

0000000000008fa0 <write>:
    8fa0:	9d e3 bf 50 	save  %sp, -176, %sp
    8fa4:	80 a6 60 00 	cmp  %i1, 0
    8fa8:	04 40 00 1c 	ble,pn   %icc, 9018 <write+0x78>
    8fac:	23 00 00 25 	sethi  %hi(0x9400), %l1
    8fb0:	a2 04 40 04 	add  %l1, %g4, %l1
    8fb4:	a2 04 63 70 	add  %l1, 0x370, %l1
    8fb8:	10 68 00 09 	b  %xcc, 8fdc <write+0x3c>
    8fbc:	a0 10 00 18 	mov  %i0, %l0
    8fc0:	7f ff fb 28 	call  7c60 <ofw_write>
    8fc4:	92 10 20 01 	mov  1, %o1
    8fc8:	a0 04 20 01 	inc  %l0
    8fcc:	82 24 00 18 	sub  %l0, %i0, %g1
    8fd0:	80 a0 40 19 	cmp  %g1, %i1
    8fd4:	16 40 00 11 	bge,pn   %icc, 9018 <write+0x78>
    8fd8:	01 00 00 00 	nop 
    8fdc:	c2 4c 00 00 	ldsb  [ %l0 ], %g1
    8fe0:	80 a0 60 0a 	cmp  %g1, 0xa
    8fe4:	12 4f ff f7 	bne  %icc, 8fc0 <write+0x20>
    8fe8:	90 10 00 10 	mov  %l0, %o0
    8fec:	90 10 00 11 	mov  %l1, %o0
    8ff0:	7f ff fb 1c 	call  7c60 <ofw_write>
    8ff4:	92 10 20 01 	mov  1, %o1
    8ff8:	90 10 00 10 	mov  %l0, %o0
    8ffc:	7f ff fb 19 	call  7c60 <ofw_write>
    9000:	92 10 20 01 	mov  1, %o1
    9004:	a0 04 20 01 	inc  %l0
    9008:	82 24 00 18 	sub  %l0, %i0, %g1
    900c:	80 a0 40 19 	cmp  %g1, %i1
    9010:	26 4f ff f4 	bl,a   %icc, 8fe0 <write+0x40>
    9014:	c2 4c 00 00 	ldsb  [ %l0 ], %g1
    9018:	81 cf e0 08 	rett  %i7 + 8
    901c:	01 00 00 00 	nop 

0000000000009020 <halt>:
    9020:	10 80 00 00 	b  9020 <halt>
    9024:	01 00 00 00 	nop 

0000000000009028 <memcpy>:
    9028:	96 10 00 08 	mov  %o0, %o3
    902c:	82 02 60 07 	add  %o1, 7, %g1
    9030:	82 08 7f f8 	and  %g1, -8, %g1
    9034:	80 a2 40 01 	cmp  %o1, %g1
    9038:	02 60 00 0d 	be,pn   %xcc, 906c <memcpy+0x44>
    903c:	82 02 20 07 	add  %o0, 7, %g1
    9040:	86 10 20 00 	clr  %g3
    9044:	02 c2 80 08 	brz,pn   %o2, 9064 <memcpy+0x3c>
    9048:	84 10 20 00 	clr  %g2
    904c:	c2 08 c0 09 	ldub  [ %g3 + %o1 ], %g1
    9050:	84 00 a0 01 	inc  %g2
    9054:	80 a2 80 02 	cmp  %o2, %g2
    9058:	c2 28 c0 08 	stb  %g1, [ %g3 + %o0 ]
    905c:	12 6f ff fc 	bne  %xcc, 904c <memcpy+0x24>
    9060:	86 10 00 02 	mov  %g2, %g3
    9064:	81 c3 e0 08 	retl 
    9068:	90 10 00 0b 	mov  %o3, %o0
    906c:	82 08 7f f8 	and  %g1, -8, %g1
    9070:	80 a2 00 01 	cmp  %o0, %g1
    9074:	12 6f ff f4 	bne  %xcc, 9044 <memcpy+0x1c>
    9078:	86 10 20 00 	clr  %g3
    907c:	89 32 b0 03 	srlx  %o2, 3, %g4
    9080:	02 c1 00 09 	brz,pn   %g4, 90a4 <memcpy+0x7c>
    9084:	8a 10 20 00 	clr  %g5
    9088:	85 28 f0 03 	sllx  %g3, 3, %g2
    908c:	86 01 60 01 	add  %g5, 1, %g3
    9090:	c2 5a 40 02 	ldx  [ %o1 + %g2 ], %g1
    9094:	8a 10 00 03 	mov  %g3, %g5
    9098:	80 a1 00 03 	cmp  %g4, %g3
    909c:	12 6f ff fb 	bne  %xcc, 9088 <memcpy+0x60>
    90a0:	c2 72 00 02 	stx  %g1, [ %o0 + %g2 ]
    90a4:	94 0a a0 07 	and  %o2, 7, %o2
    90a8:	02 f2 bf ef 	brz,pn   %o2, 9064 <memcpy+0x3c>
    90ac:	83 29 30 03 	sllx  %g4, 3, %g1
    90b0:	84 10 20 00 	clr  %g2
    90b4:	90 00 40 08 	add  %g1, %o0, %o0
    90b8:	88 00 40 09 	add  %g1, %o1, %g4
    90bc:	86 10 20 00 	clr  %g3
    90c0:	c2 08 80 04 	ldub  [ %g2 + %g4 ], %g1
    90c4:	c2 28 80 08 	stb  %g1, [ %g2 + %o0 ]
    90c8:	84 00 e0 01 	add  %g3, 1, %g2
    90cc:	80 a2 80 02 	cmp  %o2, %g2
    90d0:	12 6f ff fc 	bne  %xcc, 90c0 <memcpy+0x98>
    90d4:	86 10 00 02 	mov  %g2, %g3
    90d8:	81 c3 e0 08 	retl 
    90dc:	90 10 00 0b 	mov  %o3, %o0

00000000000090e0 <jump_to_kernel>:
    90e0:	81 43 e0 08 	membar  #StoreStore
    90e4:	81 df c0 00 	flush  %i7
    90e8:	a2 10 00 08 	mov  %o0, %l1
    90ec:	90 10 00 09 	mov  %o1, %o0
    90f0:	92 10 00 0a 	mov  %o2, %o1
    90f4:	94 10 00 0b 	mov  %o3, %o2
    90f8:	81 c4 40 00 	jmp  %l1
    90fc:	01 00 00 00 	nop 

0000000000009100 <icache_flush>:
    9100:	03 00 00 0f 	sethi  %hi(0x3c00), %g1
    9104:	82 10 63 e0 	or  %g1, 0x3e0, %g1	! 3fe0 <start-0x20>
    9108:	c0 f0 4c e0 	stxa  %g0, [ %g1 ] #ASI_IC_TAG
    910c:	81 43 e0 40 	membar  #Sync
    9110:	82 a0 60 20 	subcc  %g1, 0x20, %g1
    9114:	12 6f ff fe 	bne  %xcc, 910c <icache_flush+0xc>
    9118:	c0 f0 4c e0 	stxa  %g0, [ %g1 ] #ASI_IC_TAG
    911c:	81 43 e0 40 	membar  #Sync
    9120:	81 c3 e0 08 	retl 
    9124:	01 00 00 00 	nop 

0000000000009128 <ofw>:
    9128:	9d e3 bf 80 	save  %sp, -128, %sp
    912c:	21 00 00 27 	sethi  %hi(0x9c00), %l0
    9130:	a0 14 22 50 	or  %l0, 0x250, %l0	! 9e50 <ofw_cif>
    9134:	e0 5c 00 00 	ldx  [ %l0 ], %l0
    9138:	a3 51 80 00 	rdpr  %pstate, %l1
    913c:	a4 0c 7f f7 	and  %l1, -9, %l2
    9140:	8d 94 a0 00 	wrpr  %l2, 0, %pstate
    9144:	9f c4 00 00 	call  %l0
    9148:	90 10 00 18 	mov  %i0, %o0
    914c:	8d 94 60 00 	wrpr  %l1, 0, %pstate
    9150:	81 c7 e0 08 	ret 
    9154:	91 ea 20 00 	restore  %o0, 0, %o0
    9158:	2f 00 00 00 	sethi  %hi(0), %l7
    915c:	00 00 00 00 	illtrap  0
    9160:	63 6f 6d 70 	call  ffffffff8dbe4720 <ofw_mmu+0xffffffff8dbda8c8>
    9164:	61 74 69 62 	call  ffffffff85d236ec <ofw_mmu+0xffffffff85d19894>
    9168:	6c 65 00 00 	call  ffffffffb1949168 <ofw_mmu+0xffffffffb193f310>
    916c:	00 00 00 00 	illtrap  0
    9170:	55 6e 61 62 	call  55ba16f8 <ofw_mmu+0x55b978a0>
    9174:	6c 65 20 74 	call  ffffffffb1951344 <ofw_mmu+0xffffffffb19474ec>
    9178:	6f 20 64 65 	call  ffffffffbc82230c <ofw_mmu+0xffffffffbc8184b4>
    917c:	74 65 72 6d 	call  ffffffffd1965b30 <ofw_mmu+0xffffffffd195bcd8>
    9180:	69 6e 65 20 	call  ffffffffa5ba2600 <ofw_mmu+0xffffffffa5b987a8>
    9184:	61 72 63 68 	call  ffffffff85ca1f24 <ofw_mmu+0xffffffff85c980cc>
    9188:	69 74 65 63 	call  ffffffffa5d22714 <ofw_mmu+0xffffffffa5d188bc>
    918c:	74 75 72 65 	call  ffffffffd1d65b20 <ofw_mmu+0xffffffffd1d5bcc8>
    9190:	2c 20 64 65 	unknown
    9194:	66 61 75 6c 	call  ffffffff99866744 <ofw_mmu+0xffffffff9985c8ec>
    9198:	74 3a 20 73 	call  ffffffffd0e91364 <ofw_mmu+0xffffffffd0e8750c>
    919c:	75 6e 34 75 	call  ffffffffd5b96370 <ofw_mmu+0xffffffffd5b8c518>
    91a0:	2e 0a 00 00 	unknown
    91a4:	00 00 00 00 	illtrap  0
    91a8:	73 75 6e 34 	call  ffffffffcdd64a78 <ofw_mmu+0xffffffffcdd5ac20>
    91ac:	76 00 00 00 	call  ffffffffd80091ac <ofw_mmu+0xffffffffd7fff354>
    91b0:	45 72 72 6f 	call  15ca5b6c <ofw_mmu+0x15c9bd14>
    91b4:	72 3a 20 75 	call  ffffffffc8e91388 <ofw_mmu+0xffffffffc8e87530>
    91b8:	6e 61 62 6c 	call  ffffffffb9861b68 <ofw_mmu+0xffffffffb9857d10>
    91bc:	65 20 74 6f 	call  ffffffff94826378 <ofw_mmu+0xffffffff9481c520>
    91c0:	20 67 65 74 	bn,a,pn   %xcc, fffffffffffe2790 <ofw_mmu+0xfffffffffffd8938>
    91c4:	20 73 74 61 	bn,a,pn   %xcc, e6348 <ofw_mmu+0xdc4f0>
    91c8:	72 74 20 6f 	call  ffffffffc9d11384 <ofw_mmu+0xffffffffc9d0752c>
    91cc:	66 20 70 68 	call  ffffffff9882536c <ofw_mmu+0xffffffff9881b514>
    91d0:	79 73 69 63 	call  ffffffffe5ce375c <ofw_mmu+0xffffffffe5cd9904>
    91d4:	61 6c 20 6d 	call  ffffffff85b11388 <ofw_mmu+0xffffffff85b07530>
    91d8:	65 6d 6f 72 	call  ffffffff95b64fa0 <ofw_mmu+0xffffffff95b5b148>
    91dc:	79 2e 0a 00 	call  ffffffffe4b8b9dc <ofw_mmu+0xffffffffe4b81b84>
    91e0:	45 72 72 6f 	call  15ca5b9c <ofw_mmu+0x15c9bd44>
    91e4:	72 3a 20 75 	call  ffffffffc8e913b8 <ofw_mmu+0xffffffffc8e87560>
    91e8:	6e 61 62 6c 	call  ffffffffb9861b98 <ofw_mmu+0xffffffffb9857d40>
    91ec:	65 20 74 6f 	call  ffffffff948263a8 <ofw_mmu+0xffffffff9481c550>
    91f0:	20 67 65 74 	bn,a,pn   %xcc, fffffffffffe27c0 <ofw_mmu+0xfffffffffffd8968>
    91f4:	20 6d 65 6d 	bn,a   %xcc, fffffffffff627a8 <ofw_mmu+0xfffffffffff58950>
    91f8:	6f 72 79 20 	call  ffffffffbdca7678 <ofw_mmu+0xffffffffbdc9d820>
    91fc:	6d 61 70 2c 	call  ffffffffb58652ac <ofw_mmu+0xffffffffb585b454>
    9200:	20 68 61 6c 	bn,a   %xcc, 217b0 <ofw_mmu+0x17958>
    9204:	74 69 6e 67 	call  ffffffffd1a64ba0 <ofw_mmu+0xffffffffd1a5ad48>
    9208:	2e 0a 00 00 	unknown
    920c:	00 00 00 00 	illtrap  0
    9210:	45 72 72 6f 	call  15ca5bcc <ofw_mmu+0x15c9bd74>
    9214:	72 3a 20 6e 	call  ffffffffc8e913cc <ofw_mmu+0xffffffffc8e87574>
    9218:	6f 20 6d 65 	call  ffffffffbc8247ac <ofw_mmu+0xffffffffbc81a954>
    921c:	6d 6f 72 79 	call  ffffffffb5be5c00 <ofw_mmu+0xffffffffb5bdbda8>
    9220:	20 64 65 74 	bn,a,pn   %xcc, fffffffffff227f0 <ofw_mmu+0xfffffffffff18998>
    9224:	65 63 74 65 	call  ffffffff958e63b8 <ofw_mmu+0xffffffff958dc560>
    9228:	64 2c 20 68 	call  ffffffff90b113c8 <ofw_mmu+0xffffffff90b07570>
    922c:	61 6c 74 69 	call  ffffffff85b263d0 <ofw_mmu+0xffffffff85b1c578>
    9230:	6e 67 2e 0a 	call  ffffffffb99d4a58 <ofw_mmu+0xffffffffb99cac00>
    9234:	00 00 00 00 	illtrap  0
    9238:	46 61 69 6c 	call  198637e8 <ofw_mmu+0x19859990>
    923c:	65 64 20 74 	call  ffffffff9591140c <ofw_mmu+0xffffffff959075b4>
    9240:	6f 20 6d 61 	call  ffffffffbc8247c4 <ofw_mmu+0xffffffffbc81a96c>
    9244:	70 20 72 61 	call  ffffffffc0825bc8 <ofw_mmu+0xffffffffc081bd70>
    9248:	6d 64 69 73 	call  ffffffffb5923814 <ofw_mmu+0xffffffffb59199bc>
    924c:	6b 2e 0a 00 	call  ffffffffacb8ba4c <ofw_mmu+0xffffffffacb81bf4>
    9250:	0a 53 79 73 	bcs,pn   %icc, e781c <ofw_mmu+0xdd9c4>
    9254:	74 65 6d 20 	call  ffffffffd19646d4 <ofw_mmu+0xffffffffd195a87c>
    9258:	69 6e 66 6f 	call  ffffffffa5ba2c14 <ofw_mmu+0xffffffffa5b98dbc>
    925c:	0a 00 00 00 	unknown
    9260:	20 6d 65 6d 	bn,a   %xcc, fffffffffff62814 <ofw_mmu+0xfffffffffff589bc>
    9264:	6f 72 79 3a 	call  ffffffffbdca774c <ofw_mmu+0xffffffffbdc9d8f4>
    9268:	20 25 64 4d 	unknown
    926c:	20 73 74 61 	bn,a,pn   %xcc, e63f0 <ofw_mmu+0xdc598>
    9270:	72 74 69 6e 	call  ffffffffc9d23828 <ofw_mmu+0xffffffffc9d199d0>
    9274:	67 20 61 74 	call  ffffffff9c821844 <ofw_mmu+0xffffffff9c8179ec>
    9278:	20 25 50 0a 	unknown
    927c:	00 00 00 00 	illtrap  0
    9280:	0a 4d 65 6d 	bcs  %icc, fffffffffff62834 <ofw_mmu+0xfffffffffff589dc>
    9284:	6f 72 79 20 	call  ffffffffbdca7704 <ofw_mmu+0xffffffffbdc9d8ac>
    9288:	73 74 61 74 	call  ffffffffcdd21858 <ofw_mmu+0xffffffffcdd17a00>
    928c:	69 73 74 69 	call  ffffffffa5ce6430 <ofw_mmu+0xffffffffa5cdc5d8>
    9290:	63 73 0a 00 	call  ffffffff8dccba90 <ofw_mmu+0xffffffff8dcc1c38>
    9294:	00 00 00 00 	illtrap  0
    9298:	20 6b 65 72 	bn,a   %xcc, e2860 <ofw_mmu+0xd8a08>
    929c:	6e 65 6c 20 	call  ffffffffb996431c <ofw_mmu+0xffffffffb995a4c4>
    92a0:	65 6e 74 72 	call  ffffffff95ba6468 <ofw_mmu+0xffffffff95b9c610>
    92a4:	79 20 70 6f 	call  ffffffffe4825460 <ofw_mmu+0xffffffffe481b608>
    92a8:	69 6e 74 20 	call  ffffffffa5ba6328 <ofw_mmu+0xffffffffa5b9c4d0>
    92ac:	61 74 20 25 	call  ffffffff85d11340 <ofw_mmu+0xffffffff85d074e8>
    92b0:	50 0a 00 00 	call  402892b0 <ofw_mmu+0x4027f458>
    92b4:	00 00 00 00 	illtrap  0
    92b8:	20 25 50 3a 	unknown
    92bc:	20 62 6f 6f 	bn,a,pn   %xcc, a5078 <ofw_mmu+0x9b220>
    92c0:	74 20 69 6e 	call  ffffffffd0823878 <ofw_mmu+0xffffffffd0819a20>
    92c4:	66 6f 20 73 	call  ffffffff99bd1490 <ofw_mmu+0xffffffff99bc7638>
    92c8:	74 72 75 63 	call  ffffffffd1ca6854 <ofw_mmu+0xffffffffd1c9c9fc>
    92cc:	74 75 72 65 	call  ffffffffd1d65c60 <ofw_mmu+0xffffffffd1d5be08>
    92d0:	0a 00 00 00 	unknown
    92d4:	00 00 00 00 	illtrap  0
    92d8:	20 25 50 3a 	unknown
    92dc:	20 25 73 20 	unknown
    92e0:	69 6d 61 67 	call  ffffffffa5b6187c <ofw_mmu+0xffffffffa5b57a24>
    92e4:	65 20 28 73 	call  ffffffff948134b0 <ofw_mmu+0xffffffff94809658>
    92e8:	69 7a 65 20 	call  ffffffffa5ea2768 <ofw_mmu+0xffffffffa5e98910>
    92ec:	25 64 20 62 	fblg,a,pn   %fcc2, fffffffffff11474 <ofw_mmu+0xfffffffffff0761c>
    92f0:	79 74 65 73 	call  ffffffffe5d228bc <ofw_mmu+0xffffffffe5d18a64>
    92f4:	29 0a 00 00 	sethi  %hi(0x28000000), %l4
    92f8:	53 6b 69 70 	call  4dae38b8 <ofw_mmu+0x4dad9a60>
    92fc:	70 69 6e 67 	call  ffffffffc1a64c98 <ofw_mmu+0xffffffffc1a5ae40>
    9300:	20 73 75 70 	bn,a,pn   %xcc, e68c0 <ofw_mmu+0xdca68>
    9304:	65 72 66 6c 	call  ffffffff95ca2cb4 <ofw_mmu+0xffffffff95c98e5c>
    9308:	75 6f 75 73 	call  ffffffffd5be68d4 <ofw_mmu+0xffffffffd5bdca7c>
    930c:	20 63 6f 6d 	bn,a,pn   %xcc, e50c0 <ofw_mmu+0xdb268>
    9310:	70 6f 6e 65 	call  ffffffffc1be4ca4 <ofw_mmu+0xffffffffc1bdae4c>
    9314:	6e 74 73 2e 	call  ffffffffb9d25fcc <ofw_mmu+0xffffffffb9d1c174>
    9318:	0a 00 00 00 	unknown
    931c:	00 00 00 00 	illtrap  0
    9320:	53 6b 69 70 	call  4dae38e0 <ofw_mmu+0x4dad9a88>
    9324:	70 69 6e 67 	call  ffffffffc1a64cc0 <ofw_mmu+0xffffffffc1a5ae68>
    9328:	20 72 61 6d 	bn,a,pn   %xcc, a18dc <ofw_mmu+0x97a84>
    932c:	64 69 73 6b 	call  ffffffff91a660d8 <ofw_mmu+0xffffffff91a5c280>
    9330:	2e 0a 00 00 	unknown
    9334:	00 00 00 00 	illtrap  0
    9338:	0a 43 6f 70 	bcs,pn   %icc, e50f8 <ofw_mmu+0xdb2a0>
    933c:	79 69 6e 67 	call  ffffffffe5a64cd8 <ofw_mmu+0xffffffffe5a5ae80>
    9340:	20 72 61 6d 	bn,a,pn   %xcc, a18f4 <ofw_mmu+0x97a9c>
    9344:	64 69 73 6b 	call  ffffffff91a660f0 <ofw_mmu+0xffffffff91a5c298>
    9348:	2e 2e 2e 00 	unknown
    934c:	00 00 00 00 	illtrap  0
    9350:	64 6f 6e 65 	call  ffffffff91be4ce4 <ofw_mmu+0xffffffff91bdae8c>
    9354:	2e 0a 00 00 	unknown
    9358:	0a 43 6f 70 	bcs,pn   %icc, e5118 <ofw_mmu+0xdb2c0>
    935c:	79 69 6e 67 	call  ffffffffe5a64cf8 <ofw_mmu+0xffffffffe5a5aea0>
    9360:	20 62 6f 6f 	bn,a,pn   %xcc, a511c <ofw_mmu+0x9b2c4>
    9364:	74 69 6e 66 	call  ffffffffd1a64cfc <ofw_mmu+0xffffffffd1a5aea4>
    9368:	6f 20 74 61 	call  ffffffffbc8264ec <ofw_mmu+0xffffffffbc81c694>
    936c:	73 6b 73 0a 	call  ffffffffcdae5f94 <ofw_mmu+0xffffffffcdadc13c>
    9370:	00 00 00 00 	illtrap  0
    9374:	00 00 00 00 	illtrap  0
    9378:	20 25 73 2e 	unknown
    937c:	2e 2e 00 00 	unknown
    9380:	0a 43 6f 70 	bcs,pn   %icc, e5140 <ofw_mmu+0xdb2e8>
    9384:	79 69 6e 67 	call  ffffffffe5a64d20 <ofw_mmu+0xffffffffe5a5aec8>
    9388:	20 6b 65 72 	bn,a   %xcc, e2950 <ofw_mmu+0xd8af8>
    938c:	6e 65 6c 2e 	call  ffffffffb9964444 <ofw_mmu+0xffffffffb995a5ec>
    9390:	2e 2e 00 00 	unknown
    9394:	00 00 00 00 	illtrap  0
    9398:	0a 43 61 6e 	bcs,pn   %icc, e1950 <ofw_mmu+0xd7af8>
    939c:	6f 6e 69 7a 	call  ffffffffbdba3984 <ofw_mmu+0xffffffffbdb99b2c>
    93a0:	69 6e 67 20 	call  ffffffffa5ba3020 <ofw_mmu+0xffffffffa5b991c8>
    93a4:	4f 70 65 6e 	call  3dc2295c <ofw_mmu+0x3dc18b04>
    93a8:	46 69 72 6d 	call  19a65d5c <ofw_mmu+0x19a5bf04>
    93ac:	77 61 72 65 	call  ffffffffdd865d40 <ofw_mmu+0xffffffffdd85bee8>
    93b0:	20 64 65 76 	bn,a,pn   %xcc, fffffffffff22988 <ofw_mmu+0xfffffffffff18b30>
    93b4:	69 63 65 20 	call  ffffffffa58e2834 <ofw_mmu+0xffffffffa58d89dc>
    93b8:	74 72 65 65 	call  ffffffffd1ca294c <ofw_mmu+0xffffffffd1c98af4>
    93bc:	2e 2e 2e 00 	unknown
    93c0:	55 6e 6b 6e 	call  55ba4178 <ofw_mmu+0x55b9a320>
    93c4:	6f 77 6e 20 	call  ffffffffbdde4c44 <ofw_mmu+0xffffffffbdddadec>
    93c8:	61 72 63 68 	call  ffffffff85ca2168 <ofw_mmu+0xffffffff85c98310>
    93cc:	69 74 65 63 	call  ffffffffa5d22958 <ofw_mmu+0xffffffffa5d18b00>
    93d0:	74 75 72 65 	call  ffffffffd1d65d64 <ofw_mmu+0xffffffffd1d5bf0c>
    93d4:	2e 0a 00 00 	unknown
    93d8:	0a 42 6f 6f 	bcs,pn   %icc, a5194 <ofw_mmu+0x9b33c>
    93dc:	74 69 6e 67 	call  ffffffffd1a64d78 <ofw_mmu+0xffffffffd1a5af20>
    93e0:	20 74 68 65 	bn,a,pn   %xcc, fffffffffff23574 <ofw_mmu+0xfffffffffff1971c>
    93e4:	20 6b 65 72 	bn,a   %xcc, e29ac <ofw_mmu+0xd8b54>
    93e8:	6e 65 6c 2e 	call  ffffffffb99644a0 <ofw_mmu+0xffffffffb995a648>
    93ec:	2e 2e 0a 00 	unknown
    93f0:	30 2e 33 2e 	unknown
    93f4:	30 00 00 00 	unknown
    93f8:	2c 20 72 65 	unknown
    93fc:	76 69 73 69 	call  ffffffffd9a661a0 <ofw_mmu+0xffffffffd9a5c348>
    9400:	6f 6e 20 34 	call  ffffffffbdb914d0 <ofw_mmu+0xffffffffbdb87678>
    9404:	36 36 33 00 	unknown
    9408:	0a 42 75 69 	bcs,pn   %icc, a69ac <ofw_mmu+0x9cb54>
    940c:	6c 74 20 6f 	call  ffffffffb1d115c8 <ofw_mmu+0xffffffffb1d07770>
    9410:	6e 20 32 30 	call  ffffffffb8815cd0 <ofw_mmu+0xffffffffb880be78>
    9414:	30 39 2d 31 	unknown
    9418:	30 2d 30 38 	unknown
    941c:	20 31 31 3a 	unknown
    9420:	34 35 3a 32 	unknown
    9424:	31 00 00 00 	sethi  %hi(0), %i0
    9428:	30 78 00 00 	b,a   %xcc, 9428 <ofw+0x300>
    942c:	00 00 00 00 	illtrap  0
    9430:	71 75 69 65 	call  ffffffffc5d639c4 <ofw_mmu+0xffffffffc5d59b6c>
    9434:	73 63 65 00 	call  ffffffffcd8e2834 <ofw_mmu+0xffffffffcd8d89dc>
    9438:	63 61 6c 6c 	call  ffffffff8d8645e8 <ofw_mmu+0xffffffff8d85a790>
    943c:	2d 6d 65 74 	fbg,a   %fcc2, fffffffffff62a0c <ofw_mmu+0xfffffffffff58bb4>
    9440:	68 6f 64 00 	call  ffffffffa1be2440 <ofw_mmu+0xffffffffa1bd85e8>
    9444:	00 00 00 00 	illtrap  0
    9448:	6d 61 70 00 	call  ffffffffb5865448 <ofw_mmu+0xffffffffb585b5f0>
    944c:	00 00 00 00 	illtrap  0
    9450:	63 6c 61 69 	call  ffffffff8db219f4 <ofw_mmu+0xffffffff8db17b9c>
    9454:	6d 00 00 00 	call  ffffffffb4009454 <ofw_mmu+0xffffffffb3fff5fc>
    9458:	45 72 72 6f 	call  15ca5e14 <ofw_mmu+0x15c9bfbc>
    945c:	72 3a 20 6d 	call  ffffffffc8e91610 <ofw_mmu+0xffffffffc8e877b8>
    9460:	65 6d 6f 72 	call  ffffffff95b65228 <ofw_mmu+0xffffffff95b5b3d0>
    9464:	79 20 6d 65 	call  ffffffffe48249f8 <ofw_mmu+0xffffffffe481aba0>
    9468:	74 68 6f 64 	call  ffffffffd1a251f8 <ofw_mmu+0xffffffffd1a1b3a0>
    946c:	20 63 6c 61 	bn,a,pn   %xcc, e45f0 <ofw_mmu+0xda798>
    9470:	69 6d 28 29 	call  ffffffffa5b53514 <ofw_mmu+0xffffffffa5b496bc>
    9474:	20 66 61 69 	bn,a,pn   %xcc, fffffffffffa1a18 <ofw_mmu+0xfffffffffff97bc0>
    9478:	6c 65 64 2c 	call  ffffffffb1962528 <ofw_mmu+0xffffffffb19586d0>
    947c:	20 68 61 6c 	bn,a   %xcc, 21a2c <ofw_mmu+0x17bd4>
    9480:	74 69 6e 67 	call  ffffffffd1a64e1c <ofw_mmu+0xffffffffd1a5afc4>
    9484:	2e 0a 00 00 	unknown
    9488:	45 72 72 6f 	call  15ca5e44 <ofw_mmu+0x15c9bfec>
    948c:	72 3a 20 4d 	call  ffffffffc8e915c0 <ofw_mmu+0xffffffffc8e87768>
    9490:	4d 55 20 6d 	call  35551644 <ofw_mmu+0x355477ec>
    9494:	65 74 68 6f 	call  ffffffff95d23650 <ofw_mmu+0xffffffff95d197f8>
    9498:	64 20 63 6c 	call  ffffffff90822248 <ofw_mmu+0xffffffff908183f0>
    949c:	61 69 6d 28 	call  ffffffff85a6493c <ofw_mmu+0xffffffff85a5aae4>
    94a0:	29 20 66 61 	sethi  %hi(0x81998400), %l4
    94a4:	69 6c 65 64 	call  ffffffffa5b22a34 <ofw_mmu+0xffffffffa5b18bdc>
    94a8:	2c 20 68 61 	unknown
    94ac:	6c 74 69 6e 	call  ffffffffb1d23a64 <ofw_mmu+0xffffffffb1d19c0c>
    94b0:	67 2e 0a 00 	call  ffffffff9cb8bcb0 <ofw_mmu+0xffffffff9cb81e58>
    94b4:	00 00 00 00 	illtrap  0
    94b8:	74 72 61 6e 	call  ffffffffd1ca1a70 <ofw_mmu+0xffffffffd1c97c18>
    94bc:	73 6c 61 74 	call  ffffffffcdb21a8c <ofw_mmu+0xffffffffcdb17c34>
    94c0:	65 00 00 00 	call  ffffffff940094c0 <ofw_mmu+0xffffffff93fff668>
    94c4:	00 00 00 00 	illtrap  0
    94c8:	45 72 72 6f 	call  15ca5e84 <ofw_mmu+0x15c9c02c>
    94cc:	72 3a 20 4d 	call  ffffffffc8e91600 <ofw_mmu+0xffffffffc8e877a8>
    94d0:	4d 55 20 6d 	call  35551684 <ofw_mmu+0x3554782c>
    94d4:	65 74 68 6f 	call  ffffffff95d23690 <ofw_mmu+0xffffffff95d19838>
    94d8:	64 20 74 72 	call  ffffffff908266a0 <ofw_mmu+0xffffffff9081c848>
    94dc:	61 6e 73 6c 	call  ffffffff85ba628c <ofw_mmu+0xffffffff85b9c434>
    94e0:	61 74 65 28 	call  ffffffff85d22980 <ofw_mmu+0xffffffff85d18b28>
    94e4:	29 20 66 61 	sethi  %hi(0x81998400), %l4
    94e8:	69 6c 65 64 	call  ffffffffa5b22a78 <ofw_mmu+0xffffffffa5b18c20>
    94ec:	2c 20 68 61 	unknown
    94f0:	6c 74 69 6e 	call  ffffffffb1d23aa8 <ofw_mmu+0xffffffffb1d19c50>
    94f4:	67 2e 0a 00 	call  ffffffff9cb8bcf4 <ofw_mmu+0xffffffff9cb81e9c>
    94f8:	77 72 69 74 	call  ffffffffddca3ac8 <ofw_mmu+0xffffffffddc99c70>
    94fc:	65 00 00 00 	call  ffffffff940094fc <ofw_mmu+0xffffffff93fff6a4>
    9500:	70 65 65 72 	call  ffffffffc1962ac8 <ofw_mmu+0xffffffffc1958c70>
    9504:	00 00 00 00 	illtrap  0
    9508:	63 68 69 6c 	call  ffffffff8da23ab8 <ofw_mmu+0xffffffff8da19c60>
    950c:	64 00 00 00 	call  ffffffff9000950c <ofw_mmu+0xffffffff8ffff6b4>
    9510:	70 61 63 6b 	call  ffffffffc18622bc <ofw_mmu+0xffffffffc1858464>
    9514:	61 67 65 2d 	call  ffffffff859e29c8 <ofw_mmu+0xffffffff859d8b70>
    9518:	74 6f 2d 70 	call  ffffffffd1bd4ad8 <ofw_mmu+0xffffffffd1bcac80>
    951c:	61 74 68 00 	call  ffffffff85d2351c <ofw_mmu+0xffffffff85d196c4>
    9520:	6e 65 78 74 	call  ffffffffb99676f0 <ofw_mmu+0xffffffffb995d898>
    9524:	70 72 6f 70 	call  ffffffffc1ca52e4 <ofw_mmu+0xffffffffc1c9b48c>
    9528:	00 00 00 00 	illtrap  0
    952c:	00 00 00 00 	illtrap  0
    9530:	67 65 74 70 	call  ffffffff9d9666f0 <ofw_mmu+0xffffffff9d95c898>
    9534:	72 6f 70 6c 	call  ffffffffc9be56e4 <ofw_mmu+0xffffffffc9bdb88c>
    9538:	65 6e 00 00 	call  ffffffff95b89538 <ofw_mmu+0xffffffff95b7f6e0>
    953c:	00 00 00 00 	illtrap  0
    9540:	67 65 74 70 	call  ffffffff9d966700 <ofw_mmu+0xffffffff9d95c8a8>
    9544:	72 6f 70 00 	call  ffffffffc9be5544 <ofw_mmu+0xffffffffc9bdb6ec>
    9548:	23 73 69 7a 	fbne,a,pn   %fcc3, e3b30 <ofw_mmu+0xd9cd8>
    954c:	65 2d 63 65 	call  ffffffff94b622e0 <ofw_mmu+0xffffffff94b58488>
    9550:	6c 6c 73 00 	call  ffffffffb1b26150 <ofw_mmu+0xffffffffb1b1c2f8>
    9554:	00 00 00 00 	illtrap  0
    9558:	23 61 64 64 	fbne,a,pn   %fcc2, 626e8 <ofw_mmu+0x58890>
    955c:	72 65 73 73 	call  ffffffffc9966328 <ofw_mmu+0xffffffffc995c4d0>
    9560:	2d 63 65 6c 	fbg,a,pn   %fcc2, e2b10 <ofw_mmu+0xd8cb8>
    9564:	6c 73 00 00 	call  ffffffffb1cc9564 <ofw_mmu+0xffffffffb1cbf70c>
    9568:	66 69 6e 64 	call  ffffffff99a64ef8 <ofw_mmu+0xffffffff99a5b0a0>
    956c:	64 65 76 69 	call  ffffffff91966f10 <ofw_mmu+0xffffffff9195d0b8>
    9570:	63 65 00 00 	call  ffffffff8d949570 <ofw_mmu+0xffffffff8d93f718>
    9574:	00 00 00 00 	illtrap  0
    9578:	2f 63 68 6f 	fbu,a,pn   %fcc2, e3734 <ofw_mmu+0xd98dc>
    957c:	73 65 6e 00 	call  ffffffffcd964d7c <ofw_mmu+0xffffffffcd95af24>
    9580:	73 74 64 6f 	call  ffffffffcdd2273c <ofw_mmu+0xffffffffcdd188e4>
    9584:	75 74 00 00 	call  ffffffffd5d09584 <ofw_mmu+0xffffffffd5cff72c>
    9588:	0d 0a 45 72 	sethi  %hi(0x2915c800), %g6
    958c:	72 6f 72 3a 	call  ffffffffc9be5e74 <ofw_mmu+0xffffffffc9bdc01c>
    9590:	20 55 6e 61 	bn,a,pn   %icc, fffffffffff64f14 <ofw_mmu+0xfffffffffff5b0bc>
    9594:	62 6c 65 20 	call  ffffffff89b22a14 <ofw_mmu+0xffffffff89b18bbc>
    9598:	74 6f 20 66 	call  ffffffffd1bd1730 <ofw_mmu+0xffffffffd1bc78d8>
    959c:	69 6e 64 20 	call  ffffffffa5ba261c <ofw_mmu+0xffffffffa5b987c4>
    95a0:	2f 20 64 65 	sethi  %hi(0x81919400), %l7
    95a4:	76 69 63 65 	call  ffffffffd9a62338 <ofw_mmu+0xffffffffd9a584e0>
    95a8:	2c 20 68 61 	unknown
    95ac:	6c 74 65 64 	call  ffffffffb1d22b3c <ofw_mmu+0xffffffffb1d18ce4>
    95b0:	2e 0d 0a 00 	unknown
    95b4:	00 00 00 00 	illtrap  0
    95b8:	6d 6d 75 00 	call  ffffffffb5b669b8 <ofw_mmu+0xffffffffb5b5cb60>
    95bc:	00 00 00 00 	illtrap  0
    95c0:	0d 0a 45 72 	sethi  %hi(0x2915c800), %g6
    95c4:	72 6f 72 3a 	call  ffffffffc9be5eac <ofw_mmu+0xffffffffc9bdc054>
    95c8:	20 55 6e 61 	bn,a,pn   %icc, fffffffffff64f4c <ofw_mmu+0xfffffffffff5b0f4>
    95cc:	62 6c 65 20 	call  ffffffff89b22a4c <ofw_mmu+0xffffffff89b18bf4>
    95d0:	74 6f 20 67 	call  ffffffffd1bd176c <ofw_mmu+0xffffffffd1bc7914>
    95d4:	65 74 20 6d 	call  ffffffff95d11788 <ofw_mmu+0xffffffff95d07930>
    95d8:	6d 75 20 70 	call  ffffffffb5d51798 <ofw_mmu+0xffffffffb5d47940>
    95dc:	72 6f 70 65 	call  ffffffffc9be5770 <ofw_mmu+0xffffffffc9bdb918>
    95e0:	72 74 79 2c 	call  ffffffffc9d27a90 <ofw_mmu+0xffffffffc9d1dc38>
    95e4:	20 68 61 6c 	bn,a   %xcc, 21b94 <ofw_mmu+0x17d3c>
    95e8:	74 65 64 2e 	call  ffffffffd19626a0 <ofw_mmu+0xffffffffd1958848>
    95ec:	0d 0a 00 00 	sethi  %hi(0x28000000), %g6
    95f0:	6d 65 6d 6f 	call  ffffffffb5964bac <ofw_mmu+0xffffffffb595ad54>
    95f4:	72 79 00 00 	call  ffffffffc9e495f4 <ofw_mmu+0xffffffffc9e3f79c>
    95f8:	0d 0a 45 72 	sethi  %hi(0x2915c800), %g6
    95fc:	72 6f 72 3a 	call  ffffffffc9be5ee4 <ofw_mmu+0xffffffffc9bdc08c>
    9600:	20 55 6e 61 	bn,a,pn   %icc, fffffffffff64f84 <ofw_mmu+0xfffffffffff5b12c>
    9604:	62 6c 65 20 	call  ffffffff89b22a84 <ofw_mmu+0xffffffff89b18c2c>
    9608:	74 6f 20 67 	call  ffffffffd1bd17a4 <ofw_mmu+0xffffffffd1bc794c>
    960c:	65 74 20 6d 	call  ffffffff95d117c0 <ofw_mmu+0xffffffff95d07968>
    9610:	65 6d 6f 72 	call  ffffffff95b653d8 <ofw_mmu+0xffffffff95b5b580>
    9614:	79 20 70 72 	call  ffffffffe48257dc <ofw_mmu+0xffffffffe481b984>
    9618:	6f 70 65 72 	call  ffffffffbdc22be0 <ofw_mmu+0xffffffffbdc18d88>
    961c:	74 79 2c 20 	call  ffffffffd1e5469c <ofw_mmu+0xffffffffd1e4a844>
    9620:	68 61 6c 74 	call  ffffffffa18647f0 <ofw_mmu+0xffffffffa185a998>
    9624:	65 64 2e 0d 	call  ffffffff95914e58 <ofw_mmu+0xffffffff9590b000>
    9628:	0a 00 00 00 	unknown
    962c:	00 00 00 00 	illtrap  0
    9630:	2f 6d 65 6d 	fbu,a   %fcc2, fffffffffff62be4 <ofw_mmu+0xfffffffffff58d8c>
    9634:	6f 72 79 00 	call  ffffffffbdca7a34 <ofw_mmu+0xffffffffbdc9dbdc>
    9638:	0d 0a 45 72 	sethi  %hi(0x2915c800), %g6
    963c:	72 6f 72 3a 	call  ffffffffc9be5f24 <ofw_mmu+0xffffffffc9bdc0cc>
    9640:	20 55 6e 61 	bn,a,pn   %icc, fffffffffff64fc4 <ofw_mmu+0xfffffffffff5b16c>
    9644:	62 6c 65 20 	call  ffffffff89b22ac4 <ofw_mmu+0xffffffff89b18c6c>
    9648:	74 6f 20 66 	call  ffffffffd1bd17e0 <ofw_mmu+0xffffffffd1bc7988>
    964c:	69 6e 64 20 	call  ffffffffa5ba26cc <ofw_mmu+0xffffffffa5b98874>
    9650:	2f 6d 65 6d 	fbu,a   %fcc2, fffffffffff62c04 <ofw_mmu+0xfffffffffff58dac>
    9654:	6f 72 79 20 	call  ffffffffbdca7ad4 <ofw_mmu+0xffffffffbdc9dc7c>
    9658:	64 65 76 69 	call  ffffffff91966ffc <ofw_mmu+0xffffffff9195d1a4>
    965c:	63 65 2c 20 	call  ffffffff8d9546dc <ofw_mmu+0xffffffff8d94a884>
    9660:	68 61 6c 74 	call  ffffffffa1864830 <ofw_mmu+0xffffffffa185a9d8>
    9664:	65 64 2e 0d 	call  ffffffff95914e98 <ofw_mmu+0xffffffff9590b040>
    9668:	0a 00 00 00 	unknown
    966c:	00 00 00 00 	illtrap  0
    9670:	2f 61 6c 69 	fbu,a,pn   %fcc2, 64814 <ofw_mmu+0x5a9bc>
    9674:	61 73 65 73 	call  ffffffff85ce2c40 <ofw_mmu+0xffffffff85cd8de8>
    9678:	00 00 00 00 	illtrap  0
    967c:	00 00 00 00 	illtrap  0
    9680:	0d 0a 45 72 	sethi  %hi(0x2915c800), %g6
    9684:	72 6f 72 3a 	call  ffffffffc9be5f6c <ofw_mmu+0xffffffffc9bdc114>
    9688:	20 55 6e 61 	bn,a,pn   %icc, fffffffffff6500c <ofw_mmu+0xfffffffffff5b1b4>
    968c:	62 6c 65 20 	call  ffffffff89b22b0c <ofw_mmu+0xffffffff89b18cb4>
    9690:	74 6f 20 66 	call  ffffffffd1bd1828 <ofw_mmu+0xffffffffd1bc79d0>
    9694:	69 6e 64 20 	call  ffffffffa5ba2714 <ofw_mmu+0xffffffffa5b988bc>
    9698:	2f 61 6c 69 	fbu,a,pn   %fcc2, 6483c <ofw_mmu+0x5a9e4>
    969c:	61 73 65 73 	call  ffffffff85ce2c68 <ofw_mmu+0xffffffff85cd8e10>
    96a0:	20 64 65 76 	bn,a,pn   %xcc, fffffffffff22c78 <ofw_mmu+0xfffffffffff18e20>
    96a4:	69 63 65 2c 	call  ffffffffa58e2b54 <ofw_mmu+0xffffffffa58d8cfc>
    96a8:	20 68 61 6c 	bn,a   %xcc, 21c58 <ofw_mmu+0x17e00>
    96ac:	74 65 64 2e 	call  ffffffffd1962764 <ofw_mmu+0xffffffffd195890c>
    96b0:	0d 0a 00 00 	sethi  %hi(0x28000000), %g6
    96b4:	00 00 00 00 	illtrap  0
    96b8:	73 63 72 65 	call  ffffffffcd8e604c <ofw_mmu+0xffffffffcd8dc1f4>
    96bc:	65 6e 00 00 	call  ffffffff95b896bc <ofw_mmu+0xffffffff95b7f864>
    96c0:	64 65 70 74 	call  ffffffff91965890 <ofw_mmu+0xffffffff9195ba38>
    96c4:	68 00 00 00 	call  ffffffffa00096c4 <ofw_mmu+0xffffffff9ffff86c>
    96c8:	6f 70 65 6e 	call  ffffffffbdc22c80 <ofw_mmu+0xffffffffbdc18e28>
    96cc:	00 00 00 00 	illtrap  0
    96d0:	63 6f 6c 6f 	call  ffffffff8dbe488c <ofw_mmu+0xffffffff8dbdaa34>
    96d4:	72 21 00 00 	call  ffffffffc88496d4 <ofw_mmu+0xffffffffc883f87c>
    96d8:	61 64 64 72 	call  ffffffff859228a0 <ofw_mmu+0xffffffff85918a48>
    96dc:	65 73 73 00 	call  ffffffff95ce62dc <ofw_mmu+0xffffffff95cdc484>
    96e0:	77 69 64 74 	call  ffffffffdda628b0 <ofw_mmu+0xffffffffdda58a58>
    96e4:	68 00 00 00 	call  ffffffffa00096e4 <ofw_mmu+0xffffffff9ffff88c>
    96e8:	68 65 69 67 	call  ffffffffa1963c84 <ofw_mmu+0xffffffffa1959e2c>
    96ec:	68 74 00 00 	call  ffffffffa1d096ec <ofw_mmu+0xffffffffa1cff894>
    96f0:	6c 69 6e 65 	call  ffffffffb1a65084 <ofw_mmu+0xffffffffb1a5b22c>
    96f4:	62 79 74 65 	call  ffffffff89e66888 <ofw_mmu+0xffffffff89e5ca30>
    96f8:	73 00 00 00 	call  ffffffffcc0096f8 <ofw_mmu+0xffffffffcbfff8a0>
    96fc:	00 00 00 00 	illtrap  0
    9700:	72 65 67 00 	call  ffffffffc9963300 <ofw_mmu+0xffffffffc99594a8>
    9704:	00 00 00 00 	illtrap  0
    9708:	2f 73 73 6d 	fbu,a,pn   %fcc3, e64bc <ofw_mmu+0xdc664>
    970c:	40 30 2c 30 	call  c147cc <ofw_mmu+0xc0a974>
    9710:	00 00 00 00 	illtrap  0
    9714:	00 00 00 00 	illtrap  0
    9718:	64 65 76 69 	call  ffffffff919670bc <ofw_mmu+0xffffffff9195d264>
    971c:	63 65 5f 74 	call  ffffffff8d9614ec <ofw_mmu+0xffffffff8d957694>
    9720:	79 70 65 00 	call  ffffffffe5c22b20 <ofw_mmu+0xffffffffe5c18cc8>
    9724:	00 00 00 00 	illtrap  0
    9728:	63 70 75 00 	call  ffffffff8dc26b28 <ofw_mmu+0xffffffff8dc1ccd0>
    972c:	00 00 00 00 	illtrap  0
    9730:	75 70 61 2d 	call  ffffffffd5c21be4 <ofw_mmu+0xffffffffd5c17d8c>
    9734:	70 6f 72 74 	call  ffffffffc1be6104 <ofw_mmu+0xffffffffc1bdc2ac>
    9738:	69 64 00 00 	call  ffffffffa5909738 <ofw_mmu+0xffffffffa58ff8e0>
    973c:	00 00 00 00 	illtrap  0
    9740:	70 6f 72 74 	call  ffffffffc1be6110 <ofw_mmu+0xffffffffc1bdc2b8>
    9744:	69 64 00 00 	call  ffffffffa5909744 <ofw_mmu+0xffffffffa58ff8ec>
    9748:	63 70 75 69 	call  ffffffff8dc26cec <ofw_mmu+0xffffffff8dc1ce94>
    974c:	64 00 00 00 	call  ffffffff9000974c <ofw_mmu+0xffffffff8ffff8f4>
    9750:	53 55 4e 57 	call  4d55d0ac <ofw_mmu+0x4d553254>
    9754:	2c 73 74 61 	bneg,a,pn   %xcc, e68d8 <ofw_mmu+0xdca80>
    9758:	72 74 2d 63 	call  ffffffffc9d14ce4 <ofw_mmu+0xffffffffc9d0ae8c>
    975c:	70 75 00 00 	call  ffffffffc1d4975c <ofw_mmu+0xffffffffc1d3f904>
    9760:	6e 61 6d 65 	call  ffffffffb9864cf4 <ofw_mmu+0xffffffffb985ae9c>
    9764:	00 00 00 00 	illtrap  0
    9768:	63 6d 70 00 	call  ffffffff8db65768 <ofw_mmu+0xffffffff8db5b910>
    976c:	00 00 00 00 	illtrap  0
    9770:	0d 00 00 00 	sethi  %hi(0), %g6
    9774:	00 00 00 00 	illtrap  0

0000000000009778 <release>:
    9778:	00 00 00 00 	illtrap  0
    977c:	00 00 93 f0 	illtrap  0x93f0

0000000000009780 <revision>:
    9780:	00 00 00 00 	illtrap  0
    9784:	00 00 93 f8 	illtrap  0x93f8

0000000000009788 <timestamp>:
    9788:	00 00 00 00 	illtrap  0
    978c:	00 00 94 08 	illtrap  0x9408

0000000000009790 <digits>:
    9790:	30 31 32 33 	unknown
    9794:	34 35 36 37 	unknown
    9798:	38 39 61 62 	unknown
    979c:	63 64 65 66 	call  ffffffff8d922d34 <ofw_mmu+0xffffffff8d918edc>
    97a0:	00 00 00 00 	illtrap  0
    97a4:	00 00 00 00 	illtrap  0

00000000000097a8 <subarchitecture>:
	...

00000000000097a9 <architecture>:
    97a9:	00 00 00 00 	illtrap  0
    97ad:	00 00 00 00 	illtrap  0

00000000000097b0 <ballocs>:
	...

00000000000097b8 <name.983>:
	...

00000000000097d8 <path.982>:
	...

00000000000098e0 <components>:
	...

0000000000009a00 <bootinfo>:
	...

0000000000009e30 <mid_mask>:
	...

0000000000009e38 <ofw_aliases>:
    9e38:	00 00 00 00 	illtrap  0

0000000000009e3c <ofw_chosen>:
    9e3c:	00 00 00 00 	illtrap  0

0000000000009e40 <ofw_memory_prop>:
    9e40:	00 00 00 00 	illtrap  0

0000000000009e44 <ofw_stdout>:
    9e44:	00 00 00 00 	illtrap  0

0000000000009e48 <ofw_memory>:
    9e48:	00 00 00 00 	illtrap  0

0000000000009e4c <ofw_root>:
    9e4c:	00 00 00 00 	illtrap  0

0000000000009e50 <ofw_cif>:
	...

0000000000009e58 <ofw_mmu>:
    9e58:	00 00 00 00 	illtrap  0
