
image.1.boot:     file format elf64-sparc


Disassembly of section .boot:

0000000000004000 <start>:
    4000:	10 80 00 08 	b  4020 <silo_ramdisk_size+0x4>
    4004:	01 00 00 00 	nop 
    4008:	48 64 72 53 	call  21920954 <ofw_mmu+0x21916fdc>
    400c:	00 00 00 00 	illtrap  0
	...

0000000000004018 <silo_ramdisk_image>:
    4018:	00 00 00 00 	illtrap  0

000000000000401c <silo_ramdisk_size>:
    401c:	00 00 00 00 	illtrap  0
    4020:	8d 90 20 04 	wrpr  4, %pstate
    4024:	95 90 20 06 	wrpr  6, %cansave
    4028:	97 90 20 00 	wrpr  0, %canrestore
    402c:	9b 90 20 00 	wrpr  0, %otherwin
    4030:	99 90 20 07 	wrpr  7, %cleanwin
    4034:	1d 00 00 18 	sethi  %hi(0x6000), %sp
    4038:	9c 13 a0 60 	or  %sp, 0x60, %sp	! 6060 <initial_stack_top>
    403c:	9c 03 b8 01 	add  %sp, -2047, %sp
    4040:	21 00 00 26 	sethi  %hi(0x9800), %l0
    4044:	a0 14 21 70 	or  %l0, 0x170, %l0	! 9970 <ofw_cif>
    4048:	40 00 0f 06 	call  7c60 <ofw_init>
    404c:	d8 74 00 00 	stx  %o4, [ %l0 ]
    4050:	10 80 08 24 	b  60e0 <bootstrap>
    4054:	01 00 00 00 	nop 
    4058:	01 00 00 00 	nop 
    405c:	01 00 00 00 	nop 

0000000000004060 <initial_stack>:
	...

0000000000006060 <initial_stack_top>:
	...

00000000000060e0 <bootstrap>:
    60e0:	9d e3 be f0 	save  %sp, -272, %sp
    60e4:	11 00 00 23 	sethi  %hi(0x8c00), %o0
    60e8:	40 00 06 ce 	call  7c20 <ofw_find_device>
    60ec:	90 12 20 78 	or  %o0, 0x78, %o0	! 8c78 <ofw+0x30>
    60f0:	a0 07 a7 af 	add  %fp, 0x7af, %l0
    60f4:	13 00 00 23 	sethi  %hi(0x8c00), %o1
    60f8:	91 32 20 00 	srl  %o0, 0, %o0
    60fc:	92 12 60 80 	or  %o1, 0x80, %o1
    6100:	94 10 00 10 	mov  %l0, %o2
    6104:	40 00 06 67 	call  7aa0 <ofw_get_property>
    6108:	96 10 20 40 	mov  0x40, %o3
    610c:	80 a2 20 00 	cmp  %o0, 0
    6110:	04 40 01 b3 	ble,pn   %icc, 67dc <bootstrap+0x6fc>
    6114:	13 00 00 23 	sethi  %hi(0x8c00), %o1
    6118:	90 10 00 10 	mov  %l0, %o0
    611c:	40 00 03 c1 	call  7020 <strcmp>
    6120:	92 12 60 c8 	or  %o1, 0xc8, %o1
    6124:	80 a2 20 00 	cmp  %o0, 0
    6128:	02 48 01 6e 	be  %icc, 66e0 <bootstrap+0x600>
    612c:	82 10 20 14 	mov  0x14, %g1
    6130:	82 10 20 0a 	mov  0xa, %g1
    6134:	05 00 00 24 	sethi  %hi(0x9000), %g2
    6138:	11 00 00 25 	sethi  %hi(0x9400), %o0
    613c:	c2 28 a2 c9 	stb  %g1, [ %g2 + 0x2c9 ]
    6140:	90 12 20 00 	mov  %o0, %o0
    6144:	84 10 a2 c9 	or  %g2, 0x2c9, %g2
    6148:	40 00 01 d6 	call  68a0 <init_components>
    614c:	c4 77 a7 a7 	stx  %g2, [ %fp + 0x7a7 ]
    6150:	2d 00 00 25 	sethi  %hi(0x9400), %l6
    6154:	40 00 09 a3 	call  87e0 <ofw_get_physmem_start>
    6158:	90 15 a1 20 	or  %l6, 0x120, %o0	! 9520 <bootinfo>
    615c:	80 a2 20 00 	cmp  %o0, 0
    6160:	22 40 01 6e 	be,a,pn   %icc, 6718 <bootstrap+0x638>
    6164:	11 00 00 23 	sethi  %hi(0x8c00), %o0
    6168:	11 00 00 25 	sethi  %hi(0x9400), %o0
    616c:	40 00 08 15 	call  81c0 <ofw_memmap>
    6170:	90 12 23 30 	or  %o0, 0x330, %o0	! 9730 <bootinfo+0x210>
    6174:	80 a2 20 00 	cmp  %o0, 0
    6178:	02 40 01 73 	be,pn   %icc, 6744 <bootstrap+0x664>
    617c:	11 00 00 23 	sethi  %hi(0x8c00), %o0
    6180:	c2 05 a3 30 	ld  [ %l6 + 0x330 ], %g1
    6184:	80 a0 60 00 	cmp  %g1, 0
    6188:	02 40 01 77 	be,pn   %icc, 6764 <bootstrap+0x684>
    618c:	b4 15 a1 20 	or  %l6, 0x120, %i2
    6190:	31 00 00 10 	sethi  %hi(0x4000), %i0
    6194:	c6 06 20 18 	ld  [ %i0 + 0x18 ], %g3	! 4018 <silo_ramdisk_image>
    6198:	80 a0 e0 00 	cmp  %g3, 0
    619c:	12 40 01 7c 	bne,pn   %icc, 678c <bootstrap+0x6ac>
    61a0:	c4 5d a1 20 	ldx  [ %l6 + 0x120 ], %g2
    61a4:	11 00 00 23 	sethi  %hi(0x8c00), %o0
    61a8:	40 00 02 2e 	call  6a60 <printf>
    61ac:	90 12 21 70 	or  %o0, 0x170, %o0	! 8d70 <ofw+0x128>
    61b0:	d2 05 a3 30 	ld  [ %l6 + 0x330 ], %o1
    61b4:	d4 5d a1 20 	ldx  [ %l6 + 0x120 ], %o2
    61b8:	11 00 00 23 	sethi  %hi(0x8c00), %o0
    61bc:	93 32 60 14 	srl  %o1, 0x14, %o1
    61c0:	40 00 02 28 	call  6a60 <printf>
    61c4:	90 12 21 80 	or  %o0, 0x180, %o0
    61c8:	11 00 00 23 	sethi  %hi(0x8c00), %o0
    61cc:	40 00 02 25 	call  6a60 <printf>
    61d0:	90 12 21 a0 	or  %o0, 0x1a0, %o0	! 8da0 <ofw+0x158>
    61d4:	11 00 00 23 	sethi  %hi(0x8c00), %o0
    61d8:	90 12 21 b8 	or  %o0, 0x1b8, %o0	! 8db8 <ofw+0x170>
    61dc:	40 00 02 21 	call  6a60 <printf>
    61e0:	13 00 10 00 	sethi  %hi(0x400000), %o1
    61e4:	11 00 00 23 	sethi  %hi(0x8c00), %o0
    61e8:	90 12 21 d8 	or  %o0, 0x1d8, %o0	! 8dd8 <ofw+0x190>
    61ec:	40 00 02 1d 	call  6a60 <printf>
    61f0:	92 10 00 1a 	mov  %i2, %o1
    61f4:	29 00 00 25 	sethi  %hi(0x9400), %l4
    61f8:	a4 15 20 00 	mov  %l4, %l2	! 9400 <components>
    61fc:	03 00 00 23 	sethi  %hi(0x8c00), %g1
    6200:	05 00 00 0f 	sethi  %hi(0x3c00), %g2
    6204:	c0 25 a1 28 	clr  [ %l6 + 0x128 ]
    6208:	b8 10 61 f8 	or  %g1, 0x1f8, %i4
    620c:	ba 10 a3 ff 	or  %g2, 0x3ff, %i5
    6210:	a6 10 20 00 	clr  %l3
    6214:	a0 10 20 00 	clr  %l0
    6218:	b2 10 00 12 	mov  %l2, %i1
    621c:	2f 3f ff f0 	sethi  %hi(0xffffc000), %l7
    6220:	aa 10 00 1a 	mov  %i2, %l5
    6224:	37 00 10 00 	sethi  %hi(0x400000), %i3
    6228:	87 3c 20 00 	sra  %l0, 0, %g3
    622c:	83 28 f0 05 	sllx  %g3, 5, %g1
    6230:	82 00 60 10 	add  %g1, 0x10, %g1
    6234:	87 28 f0 05 	sllx  %g3, 5, %g3
    6238:	a2 04 80 01 	add  %l2, %g1, %l1
    623c:	84 04 80 03 	add  %l2, %g3, %g2
    6240:	d2 58 a0 08 	ldx  [ %g2 + 8 ], %o1
    6244:	d4 5c 80 03 	ldx  [ %l2 + %g3 ], %o2
    6248:	d6 5c 60 08 	ldx  [ %l1 + 8 ], %o3
    624c:	40 00 02 05 	call  6a60 <printf>
    6250:	90 10 00 1c 	mov  %i4, %o0
    6254:	82 04 c0 1d 	add  %l3, %i5, %g1
    6258:	80 a4 20 00 	cmp  %l0, 0
    625c:	02 40 01 13 	be,pn   %icc, 66a8 <bootstrap+0x5c8>
    6260:	a6 08 40 17 	and  %g1, %l7, %l3
    6264:	c6 06 a0 08 	ld  [ %i2 + 8 ], %g3
    6268:	80 a0 e0 20 	cmp  %g3, 0x20
    626c:	02 40 01 61 	be,pn   %icc, 67f0 <bootstrap+0x710>
    6270:	85 34 e0 00 	srl  %l3, 0, %g2
    6274:	c8 5c 60 08 	ldx  [ %l1 + 8 ], %g4
    6278:	83 30 e0 00 	srl  %g3, 0, %g1
    627c:	83 28 70 04 	sllx  %g1, 4, %g1
    6280:	82 05 40 01 	add  %l5, %g1, %g1
    6284:	c8 20 60 18 	st  %g4, [ %g1 + 0x18 ]
    6288:	84 00 80 1b 	add  %g2, %i3, %g2
    628c:	86 00 e0 01 	inc  %g3
    6290:	a0 04 20 01 	inc  %l0
    6294:	c4 70 60 10 	stx  %g2, [ %g1 + 0x10 ]
    6298:	c6 25 60 08 	st  %g3, [ %l5 + 8 ]
    629c:	80 a4 20 08 	cmp  %l0, 8
    62a0:	04 4f ff e2 	ble  %icc, 6228 <bootstrap+0x148>
    62a4:	a6 04 c0 04 	add  %l3, %g4, %l3
    62a8:	c2 06 20 18 	ld  [ %i0 + 0x18 ], %g1
    62ac:	80 a0 60 00 	cmp  %g1, 0
    62b0:	ea 05 a1 28 	ld  [ %l6 + 0x128 ], %l5
    62b4:	02 48 00 28 	be  %icc, 6354 <bootstrap+0x274>
    62b8:	3b 00 00 23 	sethi  %hi(0x8c00), %i5
    62bc:	80 a5 60 20 	cmp  %l5, 0x20
    62c0:	02 40 01 51 	be,pn   %icc, 6804 <bootstrap+0x724>
    62c4:	23 00 00 0f 	sethi  %hi(0x3c00), %l1
    62c8:	a2 14 63 ff 	or  %l1, 0x3ff, %l1	! 3fff <start-0x1>
    62cc:	25 00 00 10 	sethi  %hi(0x4000), %l2
    62d0:	a2 04 c0 11 	add  %l3, %l1, %l1
    62d4:	03 3f ff f0 	sethi  %hi(0xffffc000), %g1
    62d8:	c6 04 a0 1c 	ld  [ %l2 + 0x1c ], %g3
    62dc:	a2 0c 40 01 	and  %l1, %g1, %l1
    62e0:	85 35 60 00 	srl  %l5, 0, %g2
    62e4:	03 00 10 00 	sethi  %hi(0x400000), %g1
    62e8:	85 28 b0 04 	sllx  %g2, 4, %g2
    62ec:	a1 34 60 00 	srl  %l1, 0, %l0
    62f0:	84 06 80 02 	add  %i2, %g2, %g2
    62f4:	a0 04 00 01 	add  %l0, %g1, %l0
    62f8:	11 00 00 23 	sethi  %hi(0x8c00), %o0
    62fc:	82 05 60 01 	add  %l5, 1, %g1
    6300:	c6 20 a0 18 	st  %g3, [ %g2 + 0x18 ]
    6304:	e0 70 a0 10 	stx  %l0, [ %g2 + 0x10 ]
    6308:	90 12 22 58 	or  %o0, 0x258, %o0
    630c:	40 00 01 d5 	call  6a60 <printf>
    6310:	c2 25 a1 28 	st  %g1, [ %l6 + 0x128 ]
    6314:	90 10 00 10 	mov  %l0, %o0
    6318:	40 00 05 2a 	call  77c0 <ofw_claim_phys>
    631c:	d2 44 a0 1c 	ldsw  [ %l2 + 0x1c ], %o1
    6320:	96 10 3f ff 	mov  -1, %o3
    6324:	92 10 00 10 	mov  %l0, %o1
    6328:	90 10 00 10 	mov  %l0, %o0
    632c:	40 00 05 0d 	call  7760 <ofw_map>
    6330:	d4 44 a0 1c 	ldsw  [ %l2 + 0x1c ], %o2
    6334:	d2 06 20 18 	ld  [ %i0 + 0x18 ], %o1
    6338:	d4 04 a0 1c 	ld  [ %l2 + 0x1c ], %o2
    633c:	40 00 04 51 	call  7480 <memmove>
    6340:	90 10 00 10 	mov  %l0, %o0
    6344:	40 00 01 c7 	call  6a60 <printf>
    6348:	90 17 62 70 	or  %i5, 0x270, %o0
    634c:	c2 04 a0 1c 	ld  [ %l2 + 0x1c ], %g1
    6350:	a6 04 40 01 	add  %l1, %g1, %l3
    6354:	11 00 00 23 	sethi  %hi(0x8c00), %o0
    6358:	40 00 01 c2 	call  6a60 <printf>
    635c:	90 12 22 78 	or  %o0, 0x278, %o0	! 8e78 <ofw+0x230>
    6360:	d2 5d 21 00 	ldx  [ %l4 + 0x100 ], %o1
    6364:	25 00 00 23 	sethi  %hi(0x8c00), %l2
    6368:	90 14 a2 98 	or  %l2, 0x298, %o0	! 8e98 <ofw+0x250>
    636c:	40 00 01 bd 	call  6a60 <printf>
    6370:	a0 05 7f ff 	add  %l5, -1, %l0
    6374:	a1 3c 20 00 	sra  %l0, 0, %l0
    6378:	d2 5d 21 18 	ldx  [ %l4 + 0x118 ], %o1
    637c:	a1 2c 30 04 	sllx  %l0, 4, %l0
    6380:	03 00 00 0f 	sethi  %hi(0x3c00), %g1
    6384:	a0 06 80 10 	add  %i2, %l0, %l0
    6388:	c4 5c 20 10 	ldx  [ %l0 + 0x10 ], %g2
    638c:	ae 10 63 ff 	or  %g1, 0x3ff, %l7
    6390:	d0 5d a1 20 	ldx  [ %l6 + 0x120 ], %o0
    6394:	23 3f ff f0 	sethi  %hi(0xffffc000), %l1
    6398:	92 02 40 17 	add  %o1, %l7, %o1
    639c:	92 0a 40 11 	and  %o1, %l1, %o1
    63a0:	90 00 80 08 	add  %g2, %o0, %o0
    63a4:	40 00 05 07 	call  77c0 <ofw_claim_phys>
    63a8:	93 3a 60 00 	sra  %o1, 0, %o1
    63ac:	d4 5d 21 18 	ldx  [ %l4 + 0x118 ], %o2
    63b0:	d2 5d 21 08 	ldx  [ %l4 + 0x108 ], %o1
    63b4:	40 00 09 e5 	call  8b48 <memcpy>
    63b8:	d0 5c 20 10 	ldx  [ %l0 + 0x10 ], %o0
    63bc:	40 00 01 a9 	call  6a60 <printf>
    63c0:	90 17 62 70 	or  %i5, 0x270, %o0
    63c4:	d2 5d 20 e0 	ldx  [ %l4 + 0xe0 ], %o1
    63c8:	90 14 a2 98 	or  %l2, 0x298, %o0
    63cc:	40 00 01 a5 	call  6a60 <printf>
    63d0:	a0 05 7f fe 	add  %l5, -2, %l0
    63d4:	a1 3c 20 00 	sra  %l0, 0, %l0
    63d8:	d2 5d 20 f8 	ldx  [ %l4 + 0xf8 ], %o1
    63dc:	a1 2c 30 04 	sllx  %l0, 4, %l0
    63e0:	a0 06 80 10 	add  %i2, %l0, %l0
    63e4:	c2 5c 20 10 	ldx  [ %l0 + 0x10 ], %g1
    63e8:	d0 5d a1 20 	ldx  [ %l6 + 0x120 ], %o0
    63ec:	92 02 40 17 	add  %o1, %l7, %o1
    63f0:	92 0a 40 11 	and  %o1, %l1, %o1
    63f4:	90 00 40 08 	add  %g1, %o0, %o0
    63f8:	40 00 04 f2 	call  77c0 <ofw_claim_phys>
    63fc:	93 3a 60 00 	sra  %o1, 0, %o1
    6400:	d4 5d 20 f8 	ldx  [ %l4 + 0xf8 ], %o2
    6404:	d2 5d 20 e8 	ldx  [ %l4 + 0xe8 ], %o1
    6408:	40 00 09 d0 	call  8b48 <memcpy>
    640c:	d0 5c 20 10 	ldx  [ %l0 + 0x10 ], %o0
    6410:	40 00 01 94 	call  6a60 <printf>
    6414:	90 17 62 70 	or  %i5, 0x270, %o0
    6418:	d2 5d 20 c0 	ldx  [ %l4 + 0xc0 ], %o1
    641c:	90 14 a2 98 	or  %l2, 0x298, %o0
    6420:	40 00 01 90 	call  6a60 <printf>
    6424:	a0 05 7f fd 	add  %l5, -3, %l0
    6428:	a1 3c 20 00 	sra  %l0, 0, %l0
    642c:	d2 5d 20 d8 	ldx  [ %l4 + 0xd8 ], %o1
    6430:	a1 2c 30 04 	sllx  %l0, 4, %l0
    6434:	a0 06 80 10 	add  %i2, %l0, %l0
    6438:	c2 5c 20 10 	ldx  [ %l0 + 0x10 ], %g1
    643c:	d0 5d a1 20 	ldx  [ %l6 + 0x120 ], %o0
    6440:	92 02 40 17 	add  %o1, %l7, %o1
    6444:	92 0a 40 11 	and  %o1, %l1, %o1
    6448:	90 00 40 08 	add  %g1, %o0, %o0
    644c:	40 00 04 dd 	call  77c0 <ofw_claim_phys>
    6450:	93 3a 60 00 	sra  %o1, 0, %o1
    6454:	d4 5d 20 d8 	ldx  [ %l4 + 0xd8 ], %o2
    6458:	d2 5d 20 c8 	ldx  [ %l4 + 0xc8 ], %o1
    645c:	40 00 09 bb 	call  8b48 <memcpy>
    6460:	d0 5c 20 10 	ldx  [ %l0 + 0x10 ], %o0
    6464:	40 00 01 7f 	call  6a60 <printf>
    6468:	90 17 62 70 	or  %i5, 0x270, %o0
    646c:	d2 5d 20 a0 	ldx  [ %l4 + 0xa0 ], %o1
    6470:	90 14 a2 98 	or  %l2, 0x298, %o0
    6474:	40 00 01 7b 	call  6a60 <printf>
    6478:	a0 05 7f fc 	add  %l5, -4, %l0
    647c:	a1 3c 20 00 	sra  %l0, 0, %l0
    6480:	d2 5d 20 b8 	ldx  [ %l4 + 0xb8 ], %o1
    6484:	a1 2c 30 04 	sllx  %l0, 4, %l0
    6488:	a0 06 80 10 	add  %i2, %l0, %l0
    648c:	c2 5c 20 10 	ldx  [ %l0 + 0x10 ], %g1
    6490:	d0 5d a1 20 	ldx  [ %l6 + 0x120 ], %o0
    6494:	92 02 40 17 	add  %o1, %l7, %o1
    6498:	92 0a 40 11 	and  %o1, %l1, %o1
    649c:	90 00 40 08 	add  %g1, %o0, %o0
    64a0:	40 00 04 c8 	call  77c0 <ofw_claim_phys>
    64a4:	93 3a 60 00 	sra  %o1, 0, %o1
    64a8:	d4 5d 20 b8 	ldx  [ %l4 + 0xb8 ], %o2
    64ac:	d2 5d 20 a8 	ldx  [ %l4 + 0xa8 ], %o1
    64b0:	40 00 09 a6 	call  8b48 <memcpy>
    64b4:	d0 5c 20 10 	ldx  [ %l0 + 0x10 ], %o0
    64b8:	40 00 01 6a 	call  6a60 <printf>
    64bc:	90 17 62 70 	or  %i5, 0x270, %o0
    64c0:	d2 5d 20 80 	ldx  [ %l4 + 0x80 ], %o1
    64c4:	90 14 a2 98 	or  %l2, 0x298, %o0
    64c8:	40 00 01 66 	call  6a60 <printf>
    64cc:	a0 05 7f fb 	add  %l5, -5, %l0
    64d0:	a1 3c 20 00 	sra  %l0, 0, %l0
    64d4:	d2 5d 20 98 	ldx  [ %l4 + 0x98 ], %o1
    64d8:	a1 2c 30 04 	sllx  %l0, 4, %l0
    64dc:	a0 06 80 10 	add  %i2, %l0, %l0
    64e0:	c2 5c 20 10 	ldx  [ %l0 + 0x10 ], %g1
    64e4:	d0 5d a1 20 	ldx  [ %l6 + 0x120 ], %o0
    64e8:	92 02 40 17 	add  %o1, %l7, %o1
    64ec:	92 0a 40 11 	and  %o1, %l1, %o1
    64f0:	90 00 40 08 	add  %g1, %o0, %o0
    64f4:	40 00 04 b3 	call  77c0 <ofw_claim_phys>
    64f8:	93 3a 60 00 	sra  %o1, 0, %o1
    64fc:	d4 5d 20 98 	ldx  [ %l4 + 0x98 ], %o2
    6500:	d2 5d 20 88 	ldx  [ %l4 + 0x88 ], %o1
    6504:	40 00 09 91 	call  8b48 <memcpy>
    6508:	d0 5c 20 10 	ldx  [ %l0 + 0x10 ], %o0
    650c:	40 00 01 55 	call  6a60 <printf>
    6510:	90 17 62 70 	or  %i5, 0x270, %o0
    6514:	d2 5d 20 60 	ldx  [ %l4 + 0x60 ], %o1
    6518:	90 14 a2 98 	or  %l2, 0x298, %o0
    651c:	40 00 01 51 	call  6a60 <printf>
    6520:	a0 05 7f fa 	add  %l5, -6, %l0
    6524:	a1 3c 20 00 	sra  %l0, 0, %l0
    6528:	d2 5d 20 78 	ldx  [ %l4 + 0x78 ], %o1
    652c:	a1 2c 30 04 	sllx  %l0, 4, %l0
    6530:	a0 06 80 10 	add  %i2, %l0, %l0
    6534:	c2 5c 20 10 	ldx  [ %l0 + 0x10 ], %g1
    6538:	d0 5d a1 20 	ldx  [ %l6 + 0x120 ], %o0
    653c:	92 02 40 17 	add  %o1, %l7, %o1
    6540:	92 0a 40 11 	and  %o1, %l1, %o1
    6544:	90 00 40 08 	add  %g1, %o0, %o0
    6548:	40 00 04 9e 	call  77c0 <ofw_claim_phys>
    654c:	93 3a 60 00 	sra  %o1, 0, %o1
    6550:	d4 5d 20 78 	ldx  [ %l4 + 0x78 ], %o2
    6554:	d2 5d 20 68 	ldx  [ %l4 + 0x68 ], %o1
    6558:	40 00 09 7c 	call  8b48 <memcpy>
    655c:	d0 5c 20 10 	ldx  [ %l0 + 0x10 ], %o0
    6560:	40 00 01 40 	call  6a60 <printf>
    6564:	90 17 62 70 	or  %i5, 0x270, %o0
    6568:	d2 5d 20 40 	ldx  [ %l4 + 0x40 ], %o1
    656c:	90 14 a2 98 	or  %l2, 0x298, %o0
    6570:	40 00 01 3c 	call  6a60 <printf>
    6574:	a0 05 7f f9 	add  %l5, -7, %l0
    6578:	a1 3c 20 00 	sra  %l0, 0, %l0
    657c:	d2 5d 20 58 	ldx  [ %l4 + 0x58 ], %o1
    6580:	a1 2c 30 04 	sllx  %l0, 4, %l0
    6584:	a0 06 80 10 	add  %i2, %l0, %l0
    6588:	c2 5c 20 10 	ldx  [ %l0 + 0x10 ], %g1
    658c:	d0 5d a1 20 	ldx  [ %l6 + 0x120 ], %o0
    6590:	92 02 40 17 	add  %o1, %l7, %o1
    6594:	92 0a 40 11 	and  %o1, %l1, %o1
    6598:	90 00 40 08 	add  %g1, %o0, %o0
    659c:	40 00 04 89 	call  77c0 <ofw_claim_phys>
    65a0:	93 3a 60 00 	sra  %o1, 0, %o1
    65a4:	d4 5d 20 58 	ldx  [ %l4 + 0x58 ], %o2
    65a8:	d2 5d 20 48 	ldx  [ %l4 + 0x48 ], %o1
    65ac:	40 00 09 67 	call  8b48 <memcpy>
    65b0:	d0 5c 20 10 	ldx  [ %l0 + 0x10 ], %o0
    65b4:	40 00 01 2b 	call  6a60 <printf>
    65b8:	90 17 62 70 	or  %i5, 0x270, %o0
    65bc:	d2 5d 20 20 	ldx  [ %l4 + 0x20 ], %o1
    65c0:	90 14 a2 98 	or  %l2, 0x298, %o0
    65c4:	40 00 01 27 	call  6a60 <printf>
    65c8:	a0 05 7f f8 	add  %l5, -8, %l0
    65cc:	a1 3c 20 00 	sra  %l0, 0, %l0
    65d0:	d2 5d 20 38 	ldx  [ %l4 + 0x38 ], %o1
    65d4:	a1 2c 30 04 	sllx  %l0, 4, %l0
    65d8:	a0 06 80 10 	add  %i2, %l0, %l0
    65dc:	c2 5c 20 10 	ldx  [ %l0 + 0x10 ], %g1
    65e0:	d0 5d a1 20 	ldx  [ %l6 + 0x120 ], %o0
    65e4:	92 02 40 17 	add  %o1, %l7, %o1
    65e8:	92 0a 40 11 	and  %o1, %l1, %o1
    65ec:	90 00 40 08 	add  %g1, %o0, %o0
    65f0:	40 00 04 74 	call  77c0 <ofw_claim_phys>
    65f4:	93 3a 60 00 	sra  %o1, 0, %o1
    65f8:	d4 5d 20 38 	ldx  [ %l4 + 0x38 ], %o2
    65fc:	d2 5d 20 28 	ldx  [ %l4 + 0x28 ], %o1
    6600:	40 00 09 52 	call  8b48 <memcpy>
    6604:	d0 5c 20 10 	ldx  [ %l0 + 0x10 ], %o0
    6608:	40 00 01 16 	call  6a60 <printf>
    660c:	90 17 62 70 	or  %i5, 0x270, %o0
    6610:	11 00 00 23 	sethi  %hi(0x8c00), %o0
    6614:	40 00 01 13 	call  6a60 <printf>
    6618:	90 12 22 a0 	or  %o0, 0x2a0, %o0	! 8ea0 <ofw+0x258>
    661c:	d2 5d 20 18 	ldx  [ %l4 + 0x18 ], %o1
    6620:	d0 5d a1 20 	ldx  [ %l6 + 0x120 ], %o0
    6624:	92 02 40 17 	add  %o1, %l7, %o1
    6628:	92 0a 40 11 	and  %o1, %l1, %o1
    662c:	23 00 10 00 	sethi  %hi(0x400000), %l1
    6630:	93 3a 60 00 	sra  %o1, 0, %o1
    6634:	40 00 04 63 	call  77c0 <ofw_claim_phys>
    6638:	90 02 00 11 	add  %o0, %l1, %o0
    663c:	d4 5d 20 18 	ldx  [ %l4 + 0x18 ], %o2
    6640:	d2 5d 20 08 	ldx  [ %l4 + 8 ], %o1
    6644:	40 00 09 41 	call  8b48 <memcpy>
    6648:	90 10 00 11 	mov  %l1, %o0
    664c:	40 00 01 05 	call  6a60 <printf>
    6650:	90 17 62 70 	or  %i5, 0x270, %o0
    6654:	c4 5f a7 a7 	ldx  [ %fp + 0x7a7 ], %g2
    6658:	c2 08 80 00 	ldub  [ %g2 ], %g1
    665c:	80 a0 60 0a 	cmp  %g1, 0xa
    6660:	02 40 00 6e 	be,pn   %icc, 6818 <bootstrap+0x738>
    6664:	80 a0 60 14 	cmp  %g1, 0x14
    6668:	02 48 00 14 	be  %icc, 66b8 <bootstrap+0x5d8>
    666c:	c4 5d a1 20 	ldx  [ %l6 + 0x120 ], %g2
    6670:	11 00 00 23 	sethi  %hi(0x8c00), %o0
    6674:	40 00 00 fb 	call  6a60 <printf>
    6678:	90 12 22 e0 	or  %o0, 0x2e0, %o0	! 8ee0 <ofw+0x298>
    667c:	40 00 09 31 	call  8b40 <halt>
    6680:	01 00 00 00 	nop 
    6684:	11 00 00 23 	sethi  %hi(0x8c00), %o0
    6688:	40 00 00 f6 	call  6a60 <printf>
    668c:	90 12 22 f8 	or  %o0, 0x2f8, %o0	! 8ef8 <ofw+0x2b0>
    6690:	d2 5d a1 20 	ldx  [ %l6 + 0x120 ], %o1
    6694:	94 10 00 1a 	mov  %i2, %o2
    6698:	92 12 60 01 	or  %o1, 1, %o1
    669c:	11 00 10 00 	sethi  %hi(0x400000), %o0
    66a0:	40 00 09 58 	call  8c00 <jump_to_kernel>
    66a4:	96 10 24 30 	mov  0x430, %o3
    66a8:	c2 5e 60 18 	ldx  [ %i1 + 0x18 ], %g1
    66ac:	a0 10 20 01 	mov  1, %l0
    66b0:	10 6f fe de 	b  %xcc, 6228 <bootstrap+0x148>
    66b4:	a6 04 c0 01 	add  %l3, %g1, %l3
    66b8:	c6 5d a3 38 	ldx  [ %l6 + 0x338 ], %g3
    66bc:	c8 05 a3 40 	ld  [ %l6 + 0x340 ], %g4
    66c0:	03 3f f0 00 	sethi  %hi(0xffc00000), %g1
    66c4:	86 00 c0 11 	add  %g3, %l1, %g3
    66c8:	88 01 00 01 	add  %g4, %g1, %g4
    66cc:	84 00 80 11 	add  %g2, %l1, %g2
    66d0:	c4 75 a1 20 	stx  %g2, [ %l6 + 0x120 ]
    66d4:	c6 75 a3 38 	stx  %g3, [ %l6 + 0x338 ]
    66d8:	10 6f ff eb 	b  %xcc, 6684 <bootstrap+0x5a4>
    66dc:	c8 25 a3 40 	st  %g4, [ %l6 + 0x340 ]
    66e0:	05 00 00 24 	sethi  %hi(0x9000), %g2
    66e4:	11 00 00 25 	sethi  %hi(0x9400), %o0
    66e8:	c2 28 a2 c9 	stb  %g1, [ %g2 + 0x2c9 ]
    66ec:	90 12 20 00 	mov  %o0, %o0
    66f0:	84 10 a2 c9 	or  %g2, 0x2c9, %g2
    66f4:	40 00 00 6b 	call  68a0 <init_components>
    66f8:	c4 77 a7 a7 	stx  %g2, [ %fp + 0x7a7 ]
    66fc:	2d 00 00 25 	sethi  %hi(0x9400), %l6
    6700:	40 00 08 38 	call  87e0 <ofw_get_physmem_start>
    6704:	90 15 a1 20 	or  %l6, 0x120, %o0	! 9520 <bootinfo>
    6708:	80 a2 20 00 	cmp  %o0, 0
    670c:	32 4f fe 98 	bne,a   %icc, 616c <bootstrap+0x8c>
    6710:	11 00 00 25 	sethi  %hi(0x9400), %o0
    6714:	11 00 00 23 	sethi  %hi(0x8c00), %o0
    6718:	40 00 00 d2 	call  6a60 <printf>
    671c:	90 12 20 d0 	or  %o0, 0xd0, %o0	! 8cd0 <ofw+0x88>
    6720:	40 00 09 08 	call  8b40 <halt>
    6724:	01 00 00 00 	nop 
    6728:	11 00 00 25 	sethi  %hi(0x9400), %o0
    672c:	40 00 06 a5 	call  81c0 <ofw_memmap>
    6730:	90 12 23 30 	or  %o0, 0x330, %o0	! 9730 <bootinfo+0x210>
    6734:	80 a2 20 00 	cmp  %o0, 0
    6738:	12 4f fe 93 	bne  %icc, 6184 <bootstrap+0xa4>
    673c:	c2 05 a3 30 	ld  [ %l6 + 0x330 ], %g1
    6740:	11 00 00 23 	sethi  %hi(0x8c00), %o0
    6744:	40 00 00 c7 	call  6a60 <printf>
    6748:	90 12 21 00 	or  %o0, 0x100, %o0	! 8d00 <ofw+0xb8>
    674c:	40 00 08 fd 	call  8b40 <halt>
    6750:	b4 15 a1 20 	or  %l6, 0x120, %i2
    6754:	c2 05 a3 30 	ld  [ %l6 + 0x330 ], %g1
    6758:	80 a0 60 00 	cmp  %g1, 0
    675c:	12 4f fe 8e 	bne  %icc, 6194 <bootstrap+0xb4>
    6760:	31 00 00 10 	sethi  %hi(0x4000), %i0
    6764:	11 00 00 23 	sethi  %hi(0x8c00), %o0
    6768:	40 00 00 be 	call  6a60 <printf>
    676c:	90 12 21 30 	or  %o0, 0x130, %o0	! 8d30 <ofw+0xe8>
    6770:	40 00 08 f4 	call  8b40 <halt>
    6774:	31 00 00 10 	sethi  %hi(0x4000), %i0
    6778:	c6 06 20 18 	ld  [ %i0 + 0x18 ], %g3	! 4018 <silo_ramdisk_image>
    677c:	80 a0 e0 00 	cmp  %g3, 0
    6780:	02 4f fe 8a 	be  %icc, 61a8 <bootstrap+0xc8>
    6784:	11 00 00 23 	sethi  %hi(0x8c00), %o0
    6788:	c4 5d a1 20 	ldx  [ %l6 + 0x120 ], %g2
    678c:	03 3f f0 00 	sethi  %hi(0xffc00000), %g1
    6790:	82 00 c0 01 	add  %g3, %g1, %g1
    6794:	82 00 40 02 	add  %g1, %g2, %g1
    6798:	91 30 60 00 	srl  %g1, 0, %o0
    679c:	05 00 00 10 	sethi  %hi(0x4000), %g2
    67a0:	92 10 00 08 	mov  %o0, %o1
    67a4:	96 10 3f ff 	mov  -1, %o3
    67a8:	c2 26 20 18 	st  %g1, [ %i0 + 0x18 ]
    67ac:	40 00 03 ed 	call  7760 <ofw_map>
    67b0:	d4 40 a0 1c 	ldsw  [ %g2 + 0x1c ], %o2
    67b4:	80 a2 20 00 	cmp  %o0, 0
    67b8:	22 4f fe 7c 	be,a   %icc, 61a8 <bootstrap+0xc8>
    67bc:	11 00 00 23 	sethi  %hi(0x8c00), %o0
    67c0:	11 00 00 23 	sethi  %hi(0x8c00), %o0
    67c4:	40 00 00 a7 	call  6a60 <printf>
    67c8:	90 12 21 58 	or  %o0, 0x158, %o0	! 8d58 <ofw+0x110>
    67cc:	40 00 08 dd 	call  8b40 <halt>
    67d0:	01 00 00 00 	nop 
    67d4:	10 6f fe 75 	b  %xcc, 61a8 <bootstrap+0xc8>
    67d8:	11 00 00 23 	sethi  %hi(0x8c00), %o0
    67dc:	11 00 00 23 	sethi  %hi(0x8c00), %o0
    67e0:	40 00 00 a0 	call  6a60 <printf>
    67e4:	90 12 20 90 	or  %o0, 0x90, %o0	! 8c90 <ofw+0x48>
    67e8:	10 6f fe 53 	b  %xcc, 6134 <bootstrap+0x54>
    67ec:	82 10 20 0a 	mov  0xa, %g1
    67f0:	11 00 00 23 	sethi  %hi(0x8c00), %o0
    67f4:	40 00 00 9b 	call  6a60 <printf>
    67f8:	90 12 22 18 	or  %o0, 0x218, %o0	! 8e18 <ofw+0x1d0>
    67fc:	10 6f fe ac 	b  %xcc, 62ac <bootstrap+0x1cc>
    6800:	c2 06 20 18 	ld  [ %i0 + 0x18 ], %g1
    6804:	11 00 00 23 	sethi  %hi(0x8c00), %o0
    6808:	40 00 00 96 	call  6a60 <printf>
    680c:	90 12 22 40 	or  %o0, 0x240, %o0	! 8e40 <ofw+0x1f8>
    6810:	10 6f fe d2 	b  %xcc, 6358 <bootstrap+0x278>
    6814:	11 00 00 23 	sethi  %hi(0x8c00), %o0
    6818:	82 04 c0 17 	add  %l3, %l7, %g1
    681c:	d0 5d a1 20 	ldx  [ %l6 + 0x120 ], %o0
    6820:	21 3f ff f0 	sethi  %hi(0xffffc000), %l0
    6824:	a0 0c 00 01 	and  %l0, %g1, %l0
    6828:	a0 04 00 11 	add  %l0, %l1, %l0
    682c:	90 04 00 08 	add  %l0, %o0, %o0
    6830:	40 00 03 e4 	call  77c0 <ofw_claim_phys>
    6834:	13 00 00 80 	sethi  %hi(0x20000), %o1
    6838:	15 00 00 80 	sethi  %hi(0x20000), %o2
    683c:	96 10 3f ff 	mov  -1, %o3
    6840:	92 10 00 10 	mov  %l0, %o1
    6844:	40 00 03 c7 	call  7760 <ofw_map>
    6848:	90 10 00 10 	mov  %l0, %o0
    684c:	92 10 00 10 	mov  %l0, %o1
    6850:	40 00 03 54 	call  75a0 <balloc_init>
    6854:	90 06 a4 18 	add  %i2, 0x418, %o0
    6858:	11 00 00 23 	sethi  %hi(0x8c00), %o0
    685c:	40 00 00 81 	call  6a60 <printf>
    6860:	90 12 22 b8 	or  %o0, 0x2b8, %o0	! 8eb8 <ofw+0x270>
    6864:	40 00 07 b7 	call  8740 <ofw_tree_build>
    6868:	01 00 00 00 	nop 
    686c:	d0 75 a5 48 	stx  %o0, [ %l6 + 0x548 ]
    6870:	11 00 00 23 	sethi  %hi(0x8c00), %o0
    6874:	40 00 00 7b 	call  6a60 <printf>
    6878:	90 12 22 70 	or  %o0, 0x270, %o0	! 8e70 <ofw+0x228>
    687c:	40 00 05 89 	call  7ea0 <setup_palette>
    6880:	01 00 00 00 	nop 
    6884:	10 6f ff 81 	b  %xcc, 6688 <bootstrap+0x5a8>
    6888:	11 00 00 23 	sethi  %hi(0x8c00), %o0
    688c:	30 68 00 05 	b,a   %xcc, 68a0 <init_components>
    6890:	01 00 00 00 	nop 
    6894:	01 00 00 00 	nop 
    6898:	01 00 00 00 	nop 
    689c:	01 00 00 00 	nop 

00000000000068a0 <init_components>:
    68a0:	81 c3 e0 08 	retl 
    68a4:	01 00 00 00 	nop 
    68a8:	30 68 00 06 	b,a   %xcc, 68c0 <init_components+0x20>
    68ac:	01 00 00 00 	nop 
    68b0:	01 00 00 00 	nop 
    68b4:	01 00 00 00 	nop 
    68b8:	01 00 00 00 	nop 
    68bc:	01 00 00 00 	nop 
    68c0:	00 00 6a d4 	illtrap  0x6ad4
    68c4:	00 00 6a fc 	illtrap  0x6afc
    68c8:	00 00 6a fc 	illtrap  0x6afc
    68cc:	00 00 6a fc 	illtrap  0x6afc
    68d0:	00 00 6a fc 	illtrap  0x6afc
    68d4:	00 00 6a fc 	illtrap  0x6afc
    68d8:	00 00 6a fc 	illtrap  0x6afc
    68dc:	00 00 6a fc 	illtrap  0x6afc
    68e0:	00 00 6a fc 	illtrap  0x6afc
    68e4:	00 00 6a fc 	illtrap  0x6afc
    68e8:	00 00 6a fc 	illtrap  0x6afc
    68ec:	00 00 6a fc 	illtrap  0x6afc
    68f0:	00 00 6a fc 	illtrap  0x6afc
    68f4:	00 00 6a fc 	illtrap  0x6afc
    68f8:	00 00 6a fc 	illtrap  0x6afc
    68fc:	00 00 6a fc 	illtrap  0x6afc
    6900:	00 00 6a fc 	illtrap  0x6afc
    6904:	00 00 6a fc 	illtrap  0x6afc
    6908:	00 00 6a fc 	illtrap  0x6afc
    690c:	00 00 6a fc 	illtrap  0x6afc
    6910:	00 00 6a fc 	illtrap  0x6afc
    6914:	00 00 6a fc 	illtrap  0x6afc
    6918:	00 00 6a fc 	illtrap  0x6afc
    691c:	00 00 6a fc 	illtrap  0x6afc
    6920:	00 00 6a fc 	illtrap  0x6afc
    6924:	00 00 6a fc 	illtrap  0x6afc
    6928:	00 00 6a fc 	illtrap  0x6afc
    692c:	00 00 6a fc 	illtrap  0x6afc
    6930:	00 00 6a fc 	illtrap  0x6afc
    6934:	00 00 6d 0c 	illtrap  0x6d0c
    6938:	00 00 6a fc 	illtrap  0x6afc
    693c:	00 00 6a fc 	illtrap  0x6afc
    6940:	00 00 6a fc 	illtrap  0x6afc
    6944:	00 00 6a fc 	illtrap  0x6afc
    6948:	00 00 6a fc 	illtrap  0x6afc
    694c:	00 00 6a fc 	illtrap  0x6afc
    6950:	00 00 6a fc 	illtrap  0x6afc
    6954:	00 00 6a fc 	illtrap  0x6afc
    6958:	00 00 6a fc 	illtrap  0x6afc
    695c:	00 00 6c bc 	illtrap  0x6cbc
    6960:	00 00 6a fc 	illtrap  0x6afc
    6964:	00 00 6a fc 	illtrap  0x6afc
    6968:	00 00 6a fc 	illtrap  0x6afc
    696c:	00 00 6f 84 	illtrap  0x6f84
    6970:	00 00 6b 38 	illtrap  0x6b38
    6974:	00 00 6a fc 	illtrap  0x6afc
    6978:	00 00 6a fc 	illtrap  0x6afc
    697c:	00 00 6a fc 	illtrap  0x6afc
    6980:	00 00 6a fc 	illtrap  0x6afc
    6984:	00 00 6a fc 	illtrap  0x6afc
    6988:	00 00 6e 0c 	illtrap  0x6e0c
    698c:	00 00 6d 5c 	illtrap  0x6d5c
    6990:	00 00 6a fc 	illtrap  0x6afc
    6994:	00 00 6a fc 	illtrap  0x6afc
    6998:	00 00 6a fc 	illtrap  0x6afc
    699c:	00 00 6a fc 	illtrap  0x6afc
    69a0:	00 00 6a fc 	illtrap  0x6afc
    69a4:	00 00 6a fc 	illtrap  0x6afc
    69a8:	00 00 6a fc 	illtrap  0x6afc
    69ac:	00 00 6a fc 	illtrap  0x6afc
    69b0:	00 00 6a fc 	illtrap  0x6afc
    69b4:	00 00 6d 38 	illtrap  0x6d38
    69b8:	00 00 6f 6c 	illtrap  0x6f6c
    69bc:	00 00 6e a8 	illtrap  0x6ea8
    69c0:	00 00 6a fc 	illtrap  0x6afc
    69c4:	00 00 6a fc 	illtrap  0x6afc
    69c8:	00 00 6a fc 	illtrap  0x6afc
    69cc:	00 00 6a fc 	illtrap  0x6afc
    69d0:	00 00 6a fc 	illtrap  0x6afc
    69d4:	00 00 6a fc 	illtrap  0x6afc
    69d8:	00 00 6a fc 	illtrap  0x6afc
    69dc:	00 00 6c e8 	illtrap  0x6ce8
    69e0:	00 00 6a fc 	illtrap  0x6afc
    69e4:	00 00 6a fc 	illtrap  0x6afc
    69e8:	00 00 6a fc 	illtrap  0x6afc
    69ec:	00 00 6b 64 	illtrap  0x6b64
    69f0:	00 00 6b 64 	illtrap  0x6b64
    69f4:	00 00 6a fc 	illtrap  0x6afc
    69f8:	00 00 6e 5c 	illtrap  0x6e5c
    69fc:	00 00 6a fc 	illtrap  0x6afc
    6a00:	00 00 6a fc 	illtrap  0x6afc
    6a04:	00 00 6a fc 	illtrap  0x6afc
    6a08:	00 00 6e 38 	illtrap  0x6e38
    6a0c:	00 00 6d 88 	illtrap  0x6d88
    6a10:	30 68 00 04 	b,a   %xcc, 6a20 <puts>
    6a14:	01 00 00 00 	nop 
    6a18:	01 00 00 00 	nop 
    6a1c:	01 00 00 00 	nop 

0000000000006a20 <puts>:
    6a20:	c2 4a 00 00 	ldsb  [ %o0 ], %g1
    6a24:	80 a0 60 00 	cmp  %g1, 0
    6a28:	84 10 00 08 	mov  %o0, %g2
    6a2c:	02 40 00 08 	be,pn   %icc, 6a4c <puts+0x2c>
    6a30:	92 10 20 00 	clr  %o1
    6a34:	c2 08 a0 01 	ldub  [ %g2 + 1 ], %g1
    6a38:	83 28 60 18 	sll  %g1, 0x18, %g1
    6a3c:	80 a0 60 00 	cmp  %g1, 0
    6a40:	92 02 60 01 	inc  %o1
    6a44:	12 4f ff fc 	bne  %icc, 6a34 <puts+0x14>
    6a48:	84 00 a0 01 	inc  %g2
    6a4c:	93 3a 60 00 	sra  %o1, 0, %o1
    6a50:	82 13 c0 00 	mov  %o7, %g1
    6a54:	40 00 08 1b 	call  8ac0 <write>
    6a58:	9e 10 40 00 	mov  %g1, %o7
    6a5c:	01 00 00 00 	nop 

0000000000006a60 <printf>:
    6a60:	9d e3 be e0 	save  %sp, -288, %sp
    6a64:	03 00 00 23 	sethi  %hi(0x8c00), %g1
    6a68:	a2 10 63 49 	or  %g1, 0x349, %l1	! 8f49 <ofw+0x301>
    6a6c:	82 07 a8 87 	add  %fp, 0x887, %g1
    6a70:	c2 77 a7 df 	stx  %g1, [ %fp + 0x7df ]
    6a74:	05 00 00 24 	sethi  %hi(0x9000), %g2
    6a78:	03 00 00 1a 	sethi  %hi(0x6800), %g1
    6a7c:	f2 77 a8 87 	stx  %i1, [ %fp + 0x887 ]
    6a80:	f4 77 a8 8f 	stx  %i2, [ %fp + 0x88f ]
    6a84:	f6 77 a8 97 	stx  %i3, [ %fp + 0x897 ]
    6a88:	f8 77 a8 9f 	stx  %i4, [ %fp + 0x89f ]
    6a8c:	fa 77 a8 a7 	stx  %i5, [ %fp + 0x8a7 ]
    6a90:	a4 10 60 c0 	or  %g1, 0xc0, %l2
    6a94:	ba 10 a2 b0 	or  %g2, 0x2b0, %i5
    6a98:	b8 10 20 00 	clr  %i4
    6a9c:	b6 07 a7 ee 	add  %fp, 0x7ee, %i3
    6aa0:	a6 07 a7 d6 	add  %fp, 0x7d6, %l3
    6aa4:	b4 07 a7 97 	add  %fp, 0x797, %i2
    6aa8:	b2 04 7f ff 	add  %l1, -1, %i1
    6aac:	83 3f 20 00 	sra  %i4, 0, %g1
    6ab0:	c6 0e 00 01 	ldub  [ %i0 + %g1 ], %g3
    6ab4:	85 28 e0 18 	sll  %g3, 0x18, %g2
    6ab8:	85 38 a0 18 	sra  %g2, 0x18, %g2
    6abc:	80 a0 a0 00 	cmp  %g2, 0
    6ac0:	02 40 00 0f 	be,pn   %icc, 6afc <printf+0x9c>
    6ac4:	c6 2f a7 ee 	stb  %g3, [ %fp + 0x7ee ]
    6ac8:	80 a0 a0 25 	cmp  %g2, 0x25
    6acc:	02 40 00 0e 	be,pn   %icc, 6b04 <printf+0xa4>
    6ad0:	b8 07 20 01 	inc  %i4
    6ad4:	90 10 00 1b 	mov  %i3, %o0
    6ad8:	40 00 07 fa 	call  8ac0 <write>
    6adc:	92 10 20 01 	mov  1, %o1
    6ae0:	83 3f 20 00 	sra  %i4, 0, %g1
    6ae4:	c6 0e 00 01 	ldub  [ %i0 + %g1 ], %g3
    6ae8:	85 28 e0 18 	sll  %g3, 0x18, %g2
    6aec:	85 38 a0 18 	sra  %g2, 0x18, %g2
    6af0:	80 a0 a0 00 	cmp  %g2, 0
    6af4:	12 4f ff f5 	bne  %icc, 6ac8 <printf+0x68>
    6af8:	c6 2f a7 ee 	stb  %g3, [ %fp + 0x7ee ]
    6afc:	81 cf e0 08 	rett  %i7 + 8
    6b00:	01 00 00 00 	nop 
    6b04:	83 3f 20 00 	sra  %i4, 0, %g1
    6b08:	c4 0e 00 01 	ldub  [ %i0 + %g1 ], %g2
    6b0c:	86 00 bf db 	add  %g2, -37, %g3
    6b10:	82 08 e0 ff 	and  %g3, 0xff, %g1
    6b14:	80 a0 60 53 	cmp  %g1, 0x53
    6b18:	c4 2f a7 ee 	stb  %g2, [ %fp + 0x7ee ]
    6b1c:	18 4f ff f8 	bgu  %icc, 6afc <printf+0x9c>
    6b20:	b8 07 20 01 	inc  %i4
    6b24:	82 08 e0 ff 	and  %g3, 0xff, %g1
    6b28:	83 28 70 02 	sllx  %g1, 2, %g1
    6b2c:	c4 04 80 01 	ld  [ %l2 + %g1 ], %g2
    6b30:	81 c0 80 00 	jmp  %g2
    6b34:	01 00 00 00 	nop 
    6b38:	84 10 00 11 	mov  %l1, %g2
    6b3c:	92 10 20 00 	clr  %o1
    6b40:	c2 08 80 00 	ldub  [ %g2 ], %g1
    6b44:	83 28 60 18 	sll  %g1, 0x18, %g1
    6b48:	80 a0 60 00 	cmp  %g1, 0
    6b4c:	92 02 60 01 	inc  %o1
    6b50:	12 4f ff fc 	bne  %icc, 6b40 <printf+0xe0>
    6b54:	84 00 a0 01 	inc  %g2
    6b58:	93 3a 60 00 	sra  %o1, 0, %o1
    6b5c:	40 00 07 d9 	call  8ac0 <write>
    6b60:	90 10 00 19 	mov  %i1, %o0
    6b64:	c2 5f a7 df 	ldx  [ %fp + 0x7df ], %g1
    6b68:	e0 58 40 00 	ldx  [ %g1 ], %l0
    6b6c:	91 34 30 3c 	srlx  %l0, 0x3c, %o0
    6b70:	82 00 60 08 	add  %g1, 8, %g1
    6b74:	90 07 40 08 	add  %i5, %o0, %o0
    6b78:	92 10 20 01 	mov  1, %o1
    6b7c:	40 00 07 d1 	call  8ac0 <write>
    6b80:	c2 77 a7 df 	stx  %g1, [ %fp + 0x7df ]
    6b84:	91 34 30 38 	srlx  %l0, 0x38, %o0
    6b88:	90 0a 20 0f 	and  %o0, 0xf, %o0
    6b8c:	90 07 40 08 	add  %i5, %o0, %o0
    6b90:	40 00 07 cc 	call  8ac0 <write>
    6b94:	92 10 20 01 	mov  1, %o1
    6b98:	91 34 30 34 	srlx  %l0, 0x34, %o0
    6b9c:	90 0a 20 0f 	and  %o0, 0xf, %o0
    6ba0:	90 07 40 08 	add  %i5, %o0, %o0
    6ba4:	40 00 07 c7 	call  8ac0 <write>
    6ba8:	92 10 20 01 	mov  1, %o1
    6bac:	91 34 30 30 	srlx  %l0, 0x30, %o0
    6bb0:	90 0a 20 0f 	and  %o0, 0xf, %o0
    6bb4:	90 07 40 08 	add  %i5, %o0, %o0
    6bb8:	40 00 07 c2 	call  8ac0 <write>
    6bbc:	92 10 20 01 	mov  1, %o1
    6bc0:	91 34 30 2c 	srlx  %l0, 0x2c, %o0
    6bc4:	90 0a 20 0f 	and  %o0, 0xf, %o0
    6bc8:	90 07 40 08 	add  %i5, %o0, %o0
    6bcc:	40 00 07 bd 	call  8ac0 <write>
    6bd0:	92 10 20 01 	mov  1, %o1
    6bd4:	91 34 30 28 	srlx  %l0, 0x28, %o0
    6bd8:	90 0a 20 0f 	and  %o0, 0xf, %o0
    6bdc:	90 07 40 08 	add  %i5, %o0, %o0
    6be0:	40 00 07 b8 	call  8ac0 <write>
    6be4:	92 10 20 01 	mov  1, %o1
    6be8:	91 34 30 24 	srlx  %l0, 0x24, %o0
    6bec:	90 0a 20 0f 	and  %o0, 0xf, %o0
    6bf0:	90 07 40 08 	add  %i5, %o0, %o0
    6bf4:	40 00 07 b3 	call  8ac0 <write>
    6bf8:	92 10 20 01 	mov  1, %o1
    6bfc:	91 34 30 20 	srlx  %l0, 0x20, %o0
    6c00:	90 0a 20 0f 	and  %o0, 0xf, %o0
    6c04:	90 07 40 08 	add  %i5, %o0, %o0
    6c08:	40 00 07 ae 	call  8ac0 <write>
    6c0c:	92 10 20 01 	mov  1, %o1
    6c10:	91 34 30 1c 	srlx  %l0, 0x1c, %o0
    6c14:	90 0a 20 0f 	and  %o0, 0xf, %o0
    6c18:	90 07 40 08 	add  %i5, %o0, %o0
    6c1c:	92 10 20 01 	mov  1, %o1
    6c20:	40 00 07 a8 	call  8ac0 <write>
    6c24:	01 00 00 00 	nop 
    6c28:	91 34 30 18 	srlx  %l0, 0x18, %o0
    6c2c:	90 0a 20 0f 	and  %o0, 0xf, %o0
    6c30:	90 07 40 08 	add  %i5, %o0, %o0
    6c34:	40 00 07 a3 	call  8ac0 <write>
    6c38:	92 10 20 01 	mov  1, %o1
    6c3c:	91 34 30 14 	srlx  %l0, 0x14, %o0
    6c40:	90 0a 20 0f 	and  %o0, 0xf, %o0
    6c44:	90 07 40 08 	add  %i5, %o0, %o0
    6c48:	40 00 07 9e 	call  8ac0 <write>
    6c4c:	92 10 20 01 	mov  1, %o1
    6c50:	91 34 30 10 	srlx  %l0, 0x10, %o0
    6c54:	90 0a 20 0f 	and  %o0, 0xf, %o0
    6c58:	90 07 40 08 	add  %i5, %o0, %o0
    6c5c:	40 00 07 99 	call  8ac0 <write>
    6c60:	92 10 20 01 	mov  1, %o1
    6c64:	91 34 30 0c 	srlx  %l0, 0xc, %o0
    6c68:	90 0a 20 0f 	and  %o0, 0xf, %o0
    6c6c:	90 07 40 08 	add  %i5, %o0, %o0
    6c70:	92 10 20 01 	mov  1, %o1
    6c74:	40 00 07 93 	call  8ac0 <write>
    6c78:	01 00 00 00 	nop 
    6c7c:	91 34 30 08 	srlx  %l0, 8, %o0
    6c80:	90 0a 20 0f 	and  %o0, 0xf, %o0
    6c84:	90 07 40 08 	add  %i5, %o0, %o0
    6c88:	40 00 07 8e 	call  8ac0 <write>
    6c8c:	92 10 20 01 	mov  1, %o1
    6c90:	91 34 30 04 	srlx  %l0, 4, %o0
    6c94:	90 0a 20 0f 	and  %o0, 0xf, %o0
    6c98:	90 07 40 08 	add  %i5, %o0, %o0
    6c9c:	92 10 20 01 	mov  1, %o1
    6ca0:	40 00 07 88 	call  8ac0 <write>
    6ca4:	a0 0c 20 0f 	and  %l0, 0xf, %l0
    6ca8:	90 07 40 10 	add  %i5, %l0, %o0
    6cac:	40 00 07 85 	call  8ac0 <write>
    6cb0:	92 10 20 01 	mov  1, %o1
    6cb4:	10 6f ff 7f 	b  %xcc, 6ab0 <printf+0x50>
    6cb8:	83 3f 20 00 	sra  %i4, 0, %g1
    6cbc:	84 10 00 11 	mov  %l1, %g2
    6cc0:	92 10 20 00 	clr  %o1
    6cc4:	c2 08 80 00 	ldub  [ %g2 ], %g1
    6cc8:	83 28 60 18 	sll  %g1, 0x18, %g1
    6ccc:	80 a0 60 00 	cmp  %g1, 0
    6cd0:	92 02 60 01 	inc  %o1
    6cd4:	12 4f ff fc 	bne  %icc, 6cc4 <printf+0x264>
    6cd8:	84 00 a0 01 	inc  %g2
    6cdc:	93 3a 60 00 	sra  %o1, 0, %o1
    6ce0:	40 00 07 78 	call  8ac0 <write>
    6ce4:	90 10 00 19 	mov  %i1, %o0
    6ce8:	c2 5f a7 df 	ldx  [ %fp + 0x7df ], %g1
    6cec:	e0 58 40 00 	ldx  [ %g1 ], %l0
    6cf0:	91 34 30 1c 	srlx  %l0, 0x1c, %o0
    6cf4:	90 0a 20 0f 	and  %o0, 0xf, %o0
    6cf8:	82 00 60 08 	add  %g1, 8, %g1
    6cfc:	90 07 40 08 	add  %i5, %o0, %o0
    6d00:	92 10 20 01 	mov  1, %o1
    6d04:	10 6f ff c7 	b  %xcc, 6c20 <printf+0x1c0>
    6d08:	c2 77 a7 df 	stx  %g1, [ %fp + 0x7df ]
    6d0c:	84 10 00 11 	mov  %l1, %g2
    6d10:	92 10 20 00 	clr  %o1
    6d14:	c2 08 80 00 	ldub  [ %g2 ], %g1
    6d18:	83 28 60 18 	sll  %g1, 0x18, %g1
    6d1c:	80 a0 60 00 	cmp  %g1, 0
    6d20:	92 02 60 01 	inc  %o1
    6d24:	12 4f ff fc 	bne  %icc, 6d14 <printf+0x2b4>
    6d28:	84 00 a0 01 	inc  %g2
    6d2c:	93 3a 60 00 	sra  %o1, 0, %o1
    6d30:	40 00 07 64 	call  8ac0 <write>
    6d34:	90 10 00 19 	mov  %i1, %o0
    6d38:	c2 5f a7 df 	ldx  [ %fp + 0x7df ], %g1
    6d3c:	e0 58 40 00 	ldx  [ %g1 ], %l0
    6d40:	91 34 30 04 	srlx  %l0, 4, %o0
    6d44:	90 0a 20 0f 	and  %o0, 0xf, %o0
    6d48:	82 00 60 08 	add  %g1, 8, %g1
    6d4c:	90 07 40 08 	add  %i5, %o0, %o0
    6d50:	92 10 20 01 	mov  1, %o1
    6d54:	10 6f ff d3 	b  %xcc, 6ca0 <printf+0x240>
    6d58:	c2 77 a7 df 	stx  %g1, [ %fp + 0x7df ]
    6d5c:	84 10 00 11 	mov  %l1, %g2
    6d60:	92 10 20 00 	clr  %o1
    6d64:	c2 08 80 00 	ldub  [ %g2 ], %g1
    6d68:	83 28 60 18 	sll  %g1, 0x18, %g1
    6d6c:	80 a0 60 00 	cmp  %g1, 0
    6d70:	92 02 60 01 	inc  %o1
    6d74:	12 4f ff fc 	bne  %icc, 6d64 <printf+0x304>
    6d78:	84 00 a0 01 	inc  %g2
    6d7c:	93 3a 60 00 	sra  %o1, 0, %o1
    6d80:	40 00 07 50 	call  8ac0 <write>
    6d84:	90 10 00 19 	mov  %i1, %o0
    6d88:	da 5f a7 df 	ldx  [ %fp + 0x7df ], %o5
    6d8c:	ca 03 60 04 	ld  [ %o5 + 4 ], %g5
    6d90:	86 10 00 13 	mov  %l3, %g3
    6d94:	88 10 20 3f 	mov  0x3f, %g4
    6d98:	82 09 60 0f 	and  %g5, 0xf, %g1
    6d9c:	c4 0f 40 01 	ldub  [ %i5 + %g1 ], %g2
    6da0:	8b 31 60 04 	srl  %g5, 4, %g5
    6da4:	c4 28 c0 00 	stb  %g2, [ %g3 ]
    6da8:	80 a1 60 00 	cmp  %g5, 0
    6dac:	88 01 3f ff 	add  %g4, -1, %g4
    6db0:	12 4f ff fa 	bne  %icc, 6d98 <printf+0x338>
    6db4:	86 00 ff ff 	add  %g3, -1, %g3
    6db8:	83 39 20 00 	sra  %g4, 0, %g1
    6dbc:	82 00 60 01 	inc  %g1
    6dc0:	c0 2f a7 d7 	clrb  [ %fp + 0x7d7 ]
    6dc4:	c4 4e 80 01 	ldsb  [ %i2 + %g1 ], %g2
    6dc8:	90 06 80 01 	add  %i2, %g1, %o0
    6dcc:	80 a0 a0 00 	cmp  %g2, 0
    6dd0:	92 10 20 00 	clr  %o1
    6dd4:	02 40 00 79 	be,pn   %icc, 6fb8 <printf+0x558>
    6dd8:	84 10 00 08 	mov  %o0, %g2
    6ddc:	c2 08 a0 01 	ldub  [ %g2 + 1 ], %g1
    6de0:	83 28 60 18 	sll  %g1, 0x18, %g1
    6de4:	80 a0 60 00 	cmp  %g1, 0
    6de8:	92 02 60 01 	inc  %o1
    6dec:	12 4f ff fc 	bne  %icc, 6ddc <printf+0x37c>
    6df0:	84 00 a0 01 	inc  %g2
    6df4:	82 03 60 08 	add  %o5, 8, %g1
    6df8:	93 3a 60 00 	sra  %o1, 0, %o1
    6dfc:	40 00 07 31 	call  8ac0 <write>
    6e00:	c2 77 a7 df 	stx  %g1, [ %fp + 0x7df ]
    6e04:	10 6f ff 2b 	b  %xcc, 6ab0 <printf+0x50>
    6e08:	83 3f 20 00 	sra  %i4, 0, %g1
    6e0c:	84 10 00 11 	mov  %l1, %g2
    6e10:	92 10 20 00 	clr  %o1
    6e14:	c2 08 80 00 	ldub  [ %g2 ], %g1
    6e18:	83 28 60 18 	sll  %g1, 0x18, %g1
    6e1c:	80 a0 60 00 	cmp  %g1, 0
    6e20:	92 02 60 01 	inc  %o1
    6e24:	12 4f ff fc 	bne  %icc, 6e14 <printf+0x3b4>
    6e28:	84 00 a0 01 	inc  %g2
    6e2c:	93 3a 60 00 	sra  %o1, 0, %o1
    6e30:	40 00 07 24 	call  8ac0 <write>
    6e34:	90 10 00 19 	mov  %i1, %o0
    6e38:	c2 5f a7 df 	ldx  [ %fp + 0x7df ], %g1
    6e3c:	e0 58 40 00 	ldx  [ %g1 ], %l0
    6e40:	91 34 30 0c 	srlx  %l0, 0xc, %o0
    6e44:	90 0a 20 0f 	and  %o0, 0xf, %o0
    6e48:	82 00 60 08 	add  %g1, 8, %g1
    6e4c:	90 07 40 08 	add  %i5, %o0, %o0
    6e50:	92 10 20 01 	mov  1, %o1
    6e54:	10 6f ff 88 	b  %xcc, 6c74 <printf+0x214>
    6e58:	c2 77 a7 df 	stx  %g1, [ %fp + 0x7df ]
    6e5c:	c2 5f a7 df 	ldx  [ %fp + 0x7df ], %g1
    6e60:	d0 58 40 00 	ldx  [ %g1 ], %o0
    6e64:	82 00 60 08 	add  %g1, 8, %g1
    6e68:	c2 77 a7 df 	stx  %g1, [ %fp + 0x7df ]
    6e6c:	c4 4a 00 00 	ldsb  [ %o0 ], %g2
    6e70:	80 a0 a0 00 	cmp  %g2, 0
    6e74:	92 10 20 00 	clr  %o1
    6e78:	02 40 00 08 	be,pn   %icc, 6e98 <printf+0x438>
    6e7c:	84 10 00 08 	mov  %o0, %g2
    6e80:	c2 08 a0 01 	ldub  [ %g2 + 1 ], %g1
    6e84:	83 28 60 18 	sll  %g1, 0x18, %g1
    6e88:	80 a0 60 00 	cmp  %g1, 0
    6e8c:	92 02 60 01 	inc  %o1
    6e90:	12 4f ff fc 	bne  %icc, 6e80 <printf+0x420>
    6e94:	84 00 a0 01 	inc  %g2
    6e98:	40 00 07 0a 	call  8ac0 <write>
    6e9c:	93 3a 60 00 	sra  %o1, 0, %o1
    6ea0:	10 6f ff 04 	b  %xcc, 6ab0 <printf+0x50>
    6ea4:	83 3f 20 00 	sra  %i4, 0, %g1
    6ea8:	d6 5f a7 df 	ldx  [ %fp + 0x7df ], %o3
    6eac:	ca 02 e0 04 	ld  [ %o3 + 4 ], %g5
    6eb0:	9a 10 00 13 	mov  %l3, %o5
    6eb4:	98 10 20 3f 	mov  0x3f, %o4
    6eb8:	89 31 60 00 	srl  %g5, 0, %g4
    6ebc:	87 29 30 02 	sllx  %g4, 2, %g3
    6ec0:	85 29 30 04 	sllx  %g4, 4, %g2
    6ec4:	84 20 80 03 	sub  %g2, %g3, %g2
    6ec8:	83 28 b0 04 	sllx  %g2, 4, %g1
    6ecc:	84 00 80 01 	add  %g2, %g1, %g2
    6ed0:	87 28 b0 08 	sllx  %g2, 8, %g3
    6ed4:	84 00 80 03 	add  %g2, %g3, %g2
    6ed8:	83 28 b0 10 	sllx  %g2, 0x10, %g1
    6edc:	84 00 80 01 	add  %g2, %g1, %g2
    6ee0:	84 00 80 04 	add  %g2, %g4, %g2
    6ee4:	85 30 b0 23 	srlx  %g2, 0x23, %g2
    6ee8:	87 28 a0 03 	sll  %g2, 3, %g3
    6eec:	83 28 a0 01 	sll  %g2, 1, %g1
    6ef0:	82 00 40 03 	add  %g1, %g3, %g1
    6ef4:	82 21 40 01 	sub  %g5, %g1, %g1
    6ef8:	83 30 60 00 	srl  %g1, 0, %g1
    6efc:	c6 0f 40 01 	ldub  [ %i5 + %g1 ], %g3
    6f00:	80 a0 a0 00 	cmp  %g2, 0
    6f04:	c6 2b 40 00 	stb  %g3, [ %o5 ]
    6f08:	8a 10 00 02 	mov  %g2, %g5
    6f0c:	98 03 3f ff 	add  %o4, -1, %o4
    6f10:	12 4f ff ea 	bne  %icc, 6eb8 <printf+0x458>
    6f14:	9a 03 7f ff 	add  %o5, -1, %o5
    6f18:	83 3b 20 00 	sra  %o4, 0, %g1
    6f1c:	82 00 60 01 	inc  %g1
    6f20:	c0 2f a7 d7 	clrb  [ %fp + 0x7d7 ]
    6f24:	c4 4e 80 01 	ldsb  [ %i2 + %g1 ], %g2
    6f28:	90 06 80 01 	add  %i2, %g1, %o0
    6f2c:	80 a0 a0 00 	cmp  %g2, 0
    6f30:	92 10 20 00 	clr  %o1
    6f34:	02 40 00 23 	be,pn   %icc, 6fc0 <printf+0x560>
    6f38:	84 10 00 08 	mov  %o0, %g2
    6f3c:	c2 08 a0 01 	ldub  [ %g2 + 1 ], %g1
    6f40:	83 28 60 18 	sll  %g1, 0x18, %g1
    6f44:	80 a0 60 00 	cmp  %g1, 0
    6f48:	92 02 60 01 	inc  %o1
    6f4c:	12 4f ff fc 	bne  %icc, 6f3c <printf+0x4dc>
    6f50:	84 00 a0 01 	inc  %g2
    6f54:	82 02 e0 08 	add  %o3, 8, %g1
    6f58:	93 3a 60 00 	sra  %o1, 0, %o1
    6f5c:	40 00 06 d9 	call  8ac0 <write>
    6f60:	c2 77 a7 df 	stx  %g1, [ %fp + 0x7df ]
    6f64:	10 6f fe d3 	b  %xcc, 6ab0 <printf+0x50>
    6f68:	83 3f 20 00 	sra  %i4, 0, %g1
    6f6c:	c2 5f a7 df 	ldx  [ %fp + 0x7df ], %g1
    6f70:	c4 00 60 04 	ld  [ %g1 + 4 ], %g2
    6f74:	82 00 60 08 	add  %g1, 8, %g1
    6f78:	c4 2f a7 ee 	stb  %g2, [ %fp + 0x7ee ]
    6f7c:	10 6f fe d6 	b  %xcc, 6ad4 <printf+0x74>
    6f80:	c2 77 a7 df 	stx  %g1, [ %fp + 0x7df ]
    6f84:	84 10 00 11 	mov  %l1, %g2
    6f88:	92 10 20 00 	clr  %o1
    6f8c:	c2 08 80 00 	ldub  [ %g2 ], %g1
    6f90:	83 28 60 18 	sll  %g1, 0x18, %g1
    6f94:	80 a0 60 00 	cmp  %g1, 0
    6f98:	92 02 60 01 	inc  %o1
    6f9c:	12 4f ff fc 	bne  %icc, 6f8c <printf+0x52c>
    6fa0:	84 00 a0 01 	inc  %g2
    6fa4:	93 3a 60 00 	sra  %o1, 0, %o1
    6fa8:	40 00 06 c6 	call  8ac0 <write>
    6fac:	90 10 00 19 	mov  %i1, %o0
    6fb0:	10 6f fe ee 	b  %xcc, 6b68 <printf+0x108>
    6fb4:	c2 5f a7 df 	ldx  [ %fp + 0x7df ], %g1
    6fb8:	10 6f ff 8f 	b  %xcc, 6df4 <printf+0x394>
    6fbc:	92 10 00 05 	mov  %g5, %o1
    6fc0:	10 6f ff e5 	b  %xcc, 6f54 <printf+0x4f4>
    6fc4:	92 10 00 05 	mov  %g5, %o1
    6fc8:	30 68 00 06 	b,a   %xcc, 6fe0 <strlen>
    6fcc:	01 00 00 00 	nop 
    6fd0:	01 00 00 00 	nop 
    6fd4:	01 00 00 00 	nop 
    6fd8:	01 00 00 00 	nop 
    6fdc:	01 00 00 00 	nop 

0000000000006fe0 <strlen>:
    6fe0:	c2 4a 00 00 	ldsb  [ %o0 ], %g1
    6fe4:	80 a0 60 00 	cmp  %g1, 0
    6fe8:	84 10 20 00 	clr  %g2
    6fec:	02 40 00 09 	be,pn   %icc, 7010 <strlen+0x30>
    6ff0:	82 10 20 00 	clr  %g1
    6ff4:	c2 0a 20 01 	ldub  [ %o0 + 1 ], %g1
    6ff8:	83 28 60 18 	sll  %g1, 0x18, %g1
    6ffc:	80 a0 60 00 	cmp  %g1, 0
    7000:	84 00 a0 01 	inc  %g2
    7004:	12 4f ff fc 	bne  %icc, 6ff4 <strlen+0x14>
    7008:	90 02 20 01 	inc  %o0
    700c:	83 38 a0 00 	sra  %g2, 0, %g1
    7010:	81 c3 e0 08 	retl 
    7014:	90 10 00 01 	mov  %g1, %o0
    7018:	01 00 00 00 	nop 
    701c:	01 00 00 00 	nop 

0000000000007020 <strcmp>:
    7020:	c4 4a 00 00 	ldsb  [ %o0 ], %g2
    7024:	80 a0 a0 00 	cmp  %g2, 0
    7028:	12 48 00 0e 	bne  %icc, 7060 <strcmp+0x40>
    702c:	c2 4a 40 00 	ldsb  [ %o1 ], %g1
    7030:	10 68 00 14 	b  %xcc, 7080 <strcmp+0x60>
    7034:	80 a0 60 00 	cmp  %g1, 0
    7038:	26 40 00 15 	bl,a,pn   %icc, 708c <strcmp+0x6c>
    703c:	90 10 3f ff 	mov  -1, %o0
    7040:	34 40 00 0c 	bg,a,pn   %icc, 7070 <strcmp+0x50>
    7044:	90 10 20 01 	mov  1, %o0
    7048:	90 02 20 01 	inc  %o0
    704c:	c4 4a 00 00 	ldsb  [ %o0 ], %g2
    7050:	80 a0 a0 00 	cmp  %g2, 0
    7054:	02 40 00 09 	be,pn   %icc, 7078 <strcmp+0x58>
    7058:	92 02 60 01 	inc  %o1
    705c:	c2 4a 40 00 	ldsb  [ %o1 ], %g1
    7060:	80 a0 60 00 	cmp  %g1, 0
    7064:	12 4f ff f5 	bne  %icc, 7038 <strcmp+0x18>
    7068:	80 a0 80 01 	cmp  %g2, %g1
    706c:	90 10 20 01 	mov  1, %o0
    7070:	81 c3 e0 08 	retl 
    7074:	91 3a 20 00 	sra  %o0, 0, %o0
    7078:	c2 4a 40 00 	ldsb  [ %o1 ], %g1
    707c:	80 a0 60 00 	cmp  %g1, 0
    7080:	02 4f ff fc 	be  %icc, 7070 <strcmp+0x50>
    7084:	90 10 20 00 	clr  %o0
    7088:	90 10 3f ff 	mov  -1, %o0
    708c:	81 c3 e0 08 	retl 
    7090:	91 3a 20 00 	sra  %o0, 0, %o0
    7094:	30 68 00 03 	b,a   %xcc, 70a0 <strncmp>
    7098:	01 00 00 00 	nop 
    709c:	01 00 00 00 	nop 

00000000000070a0 <strncmp>:
    70a0:	c2 0a 00 00 	ldub  [ %o0 ], %g1
    70a4:	89 28 60 18 	sll  %g1, 0x18, %g4
    70a8:	85 39 20 18 	sra  %g4, 0x18, %g2
    70ac:	80 a0 a0 00 	cmp  %g2, 0
    70b0:	22 40 00 33 	be,a,pn   %icc, 717c <strncmp+0xdc>
    70b4:	84 10 20 00 	clr  %g2
    70b8:	c2 4a 40 00 	ldsb  [ %o1 ], %g1
    70bc:	80 a0 60 00 	cmp  %g1, 0
    70c0:	22 40 00 2f 	be,a,pn   %icc, 717c <strncmp+0xdc>
    70c4:	84 10 20 00 	clr  %g2
    70c8:	02 c2 80 23 	brz,pn   %o2, 7154 <strncmp+0xb4>
    70cc:	80 a0 40 02 	cmp  %g1, %g2
    70d0:	34 40 00 27 	bg,a,pn   %icc, 716c <strncmp+0xcc>
    70d4:	90 10 3f ff 	mov  -1, %o0
    70d8:	16 48 00 0f 	bge  %icc, 7114 <strncmp+0x74>
    70dc:	84 10 20 01 	mov  1, %g2
    70e0:	10 68 00 25 	b  %xcc, 7174 <strncmp+0xd4>
    70e4:	90 10 20 01 	mov  1, %o0
    70e8:	c2 4a 40 00 	ldsb  [ %o1 ], %g1
    70ec:	80 a0 60 00 	cmp  %g1, 0
    70f0:	02 40 00 10 	be,pn   %icc, 7130 <strncmp+0x90>
    70f4:	80 a2 80 02 	cmp  %o2, %g2
    70f8:	08 60 00 0f 	bleu,pn   %xcc, 7134 <strncmp+0x94>
    70fc:	80 a0 c0 01 	cmp  %g3, %g1
    7100:	06 40 00 1a 	bl,pn   %icc, 7168 <strncmp+0xc8>
    7104:	84 00 a0 01 	inc  %g2
    7108:	80 a0 c0 01 	cmp  %g3, %g1
    710c:	34 40 00 1a 	bg,a,pn   %icc, 7174 <strncmp+0xd4>
    7110:	90 10 20 01 	mov  1, %o0
    7114:	c2 0a 00 02 	ldub  [ %o0 + %g2 ], %g1
    7118:	89 28 60 18 	sll  %g1, 0x18, %g4
    711c:	87 39 20 18 	sra  %g4, 0x18, %g3
    7120:	80 a0 e0 00 	cmp  %g3, 0
    7124:	92 02 60 01 	inc  %o1
    7128:	12 4f ff f0 	bne  %icc, 70e8 <strncmp+0x48>
    712c:	8a 10 00 02 	mov  %g2, %g5
    7130:	85 39 60 00 	sra  %g5, 0, %g2
    7134:	80 a0 80 0a 	cmp  %g2, %o2
    7138:	22 60 00 08 	be,a,pn   %xcc, 7158 <strncmp+0xb8>
    713c:	90 10 20 00 	clr  %o0
    7140:	85 39 20 18 	sra  %g4, 0x18, %g2
    7144:	c2 4a 40 00 	ldsb  [ %o1 ], %g1
    7148:	80 a0 40 02 	cmp  %g1, %g2
    714c:	12 40 00 05 	bne,pn   %icc, 7160 <strncmp+0xc0>
    7150:	80 a0 a0 00 	cmp  %g2, 0
    7154:	90 10 20 00 	clr  %o0
    7158:	81 c3 e0 08 	retl 
    715c:	91 3a 20 00 	sra  %o0, 0, %o0
    7160:	32 48 00 05 	bne,a   %icc, 7174 <strncmp+0xd4>
    7164:	90 10 20 01 	mov  1, %o0
    7168:	90 10 3f ff 	mov  -1, %o0
    716c:	81 c3 e0 08 	retl 
    7170:	91 3a 20 00 	sra  %o0, 0, %o0
    7174:	81 c3 e0 08 	retl 
    7178:	91 3a 20 00 	sra  %o0, 0, %o0
    717c:	80 a0 80 0a 	cmp  %g2, %o2
    7180:	12 6f ff f1 	bne  %xcc, 7144 <strncmp+0xa4>
    7184:	85 39 20 18 	sra  %g4, 0x18, %g2
    7188:	10 6f ff f4 	b  %xcc, 7158 <strncmp+0xb8>
    718c:	90 10 20 00 	clr  %o0
    7190:	30 68 00 04 	b,a   %xcc, 71a0 <strncpy>
    7194:	01 00 00 00 	nop 
    7198:	01 00 00 00 	nop 
    719c:	01 00 00 00 	nop 

00000000000071a0 <strncpy>:
    71a0:	02 c2 80 14 	brz,pn   %o2, 71f0 <strncpy+0x50>
    71a4:	82 10 3f ff 	mov  -1, %g1	! ffffffffffffffff <ofw_mmu+0xffffffffffff6687>
    71a8:	c4 0a 40 00 	ldub  [ %o1 ], %g2
    71ac:	83 28 a0 18 	sll  %g2, 0x18, %g1
    71b0:	80 a0 60 00 	cmp  %g1, 0
    71b4:	c4 2a 00 00 	stb  %g2, [ %o0 ]
    71b8:	02 40 00 0b 	be,pn   %icc, 71e4 <strncpy+0x44>
    71bc:	86 10 20 01 	mov  1, %g3
    71c0:	80 a2 80 03 	cmp  %o2, %g3
    71c4:	08 60 00 0a 	bleu,pn   %xcc, 71ec <strncpy+0x4c>
    71c8:	83 38 e0 00 	sra  %g3, 0, %g1
    71cc:	c4 0a 40 03 	ldub  [ %o1 + %g3 ], %g2
    71d0:	83 28 a0 18 	sll  %g2, 0x18, %g1
    71d4:	c4 2a 00 03 	stb  %g2, [ %o0 + %g3 ]
    71d8:	80 a0 60 00 	cmp  %g1, 0
    71dc:	12 4f ff f9 	bne  %icc, 71c0 <strncpy+0x20>
    71e0:	86 00 e0 01 	inc  %g3
    71e4:	81 c3 e0 08 	retl 
    71e8:	01 00 00 00 	nop 
    71ec:	82 00 7f ff 	add  %g1, -1, %g1
    71f0:	81 c3 e0 08 	retl 
    71f4:	c0 2a 00 01 	clrb  [ %o0 + %g1 ]
    71f8:	01 00 00 00 	nop 
    71fc:	01 00 00 00 	nop 

0000000000007200 <atoi>:
    7200:	ca 0a 00 00 	ldub  [ %o0 ], %g5
    7204:	9b 29 60 18 	sll  %g5, 0x18, %o5
    7208:	83 3b 60 18 	sra  %o5, 0x18, %g1
    720c:	80 a0 60 30 	cmp  %g1, 0x30
    7210:	98 10 00 08 	mov  %o0, %o4
    7214:	02 40 00 3b 	be,pn   %icc, 7300 <atoi+0x100>
    7218:	82 10 20 0a 	mov  0xa, %g1
    721c:	80 a3 60 00 	cmp  %o5, 0
    7220:	02 40 00 36 	be,pn   %icc, 72f8 <atoi+0xf8>
    7224:	90 10 20 00 	clr  %o0
    7228:	80 a0 60 10 	cmp  %g1, 0x10
    722c:	02 40 00 70 	be,pn   %icc, 73ec <atoi+0x1ec>
    7230:	80 a0 60 08 	cmp  %g1, 8
    7234:	02 40 00 3f 	be,pn   %icc, 7330 <atoi+0x130>
    7238:	95 38 60 00 	sra  %g1, 0, %o2
    723c:	10 68 00 13 	b  %xcc, 7288 <atoi+0x88>
    7240:	82 01 7f bf 	add  %g5, -65, %g1
    7244:	84 10 00 01 	mov  %g1, %g2
    7248:	84 00 bf a9 	add  %g2, -87, %g2
    724c:	82 00 7f c9 	add  %g1, -55, %g1
    7250:	80 a1 20 00 	cmp  %g4, 0
    7254:	87 38 60 00 	sra  %g1, 0, %g3
    7258:	12 48 00 56 	bne  %icc, 73b0 <atoi+0x1b0>
    725c:	85 38 a0 00 	sra  %g2, 0, %g2
    7260:	80 a2 e0 00 	cmp  %o3, 0
    7264:	02 40 00 25 	be,pn   %icc, 72f8 <atoi+0xf8>
    7268:	82 4a 00 0a 	mulx  %o0, %o2, %g1
    726c:	90 00 80 01 	add  %g2, %g1, %o0
    7270:	98 03 20 01 	inc  %o4
    7274:	ca 0b 00 00 	ldub  [ %o4 ], %g5
    7278:	9b 29 60 18 	sll  %g5, 0x18, %o5
    727c:	80 a3 60 00 	cmp  %o5, 0
    7280:	02 40 00 1e 	be,pn   %icc, 72f8 <atoi+0xf8>
    7284:	82 01 7f bf 	add  %g5, -65, %g1
    7288:	82 08 60 ff 	and  %g1, 0xff, %g1
    728c:	84 01 7f 9f 	add  %g5, -97, %g2
    7290:	80 a0 60 05 	cmp  %g1, 5
    7294:	84 08 a0 ff 	and  %g2, 0xff, %g2
    7298:	88 10 20 00 	clr  %g4
    729c:	89 65 20 01 	movleu  %icc, 1, %g4
    72a0:	80 a0 a0 05 	cmp  %g2, 5
    72a4:	84 10 20 00 	clr  %g2
    72a8:	85 65 20 01 	movleu  %icc, 1, %g2
    72ac:	83 3b 60 18 	sra  %o5, 0x18, %g1
    72b0:	86 01 7f d0 	add  %g5, -48, %g3
    72b4:	82 00 7f d0 	add  %g1, -48, %g1
    72b8:	80 91 00 02 	orcc  %g4, %g2, %g0
    72bc:	86 08 e0 ff 	and  %g3, 0xff, %g3
    72c0:	8b 38 60 00 	sra  %g1, 0, %g5
    72c4:	12 40 00 0d 	bne,pn   %icc, 72f8 <atoi+0xf8>
    72c8:	96 10 00 02 	mov  %g2, %o3
    72cc:	80 a0 e0 09 	cmp  %g3, 9
    72d0:	18 4f ff dd 	bgu  %icc, 7244 <atoi+0x44>
    72d4:	83 3b 60 18 	sra  %o5, 0x18, %g1
    72d8:	82 4a 00 0a 	mulx  %o0, %o2, %g1
    72dc:	98 03 20 01 	inc  %o4
    72e0:	90 01 40 01 	add  %g5, %g1, %o0
    72e4:	ca 0b 00 00 	ldub  [ %o4 ], %g5
    72e8:	9b 29 60 18 	sll  %g5, 0x18, %o5
    72ec:	80 a3 60 00 	cmp  %o5, 0
    72f0:	12 4f ff e6 	bne  %icc, 7288 <atoi+0x88>
    72f4:	82 01 7f bf 	add  %g5, -65, %g1
    72f8:	81 c3 e0 08 	retl 
    72fc:	01 00 00 00 	nop 
    7300:	c2 4a 20 01 	ldsb  [ %o0 + 1 ], %g1
    7304:	80 a0 60 78 	cmp  %g1, 0x78
    7308:	22 40 00 55 	be,a,pn   %icc, 745c <atoi+0x25c>
    730c:	98 02 20 02 	add  %o0, 2, %o4
    7310:	10 68 00 08 	b  %xcc, 7330 <atoi+0x130>
    7314:	90 10 20 00 	clr  %o0
    7318:	98 03 20 01 	inc  %o4
    731c:	ca 0b 00 00 	ldub  [ %o4 ], %g5
    7320:	9b 29 60 18 	sll  %g5, 0x18, %o5
    7324:	80 a3 60 00 	cmp  %o5, 0
    7328:	02 40 00 51 	be,pn   %icc, 746c <atoi+0x26c>
    732c:	01 00 00 00 	nop 
    7330:	82 01 7f bf 	add  %g5, -65, %g1
    7334:	82 08 60 ff 	and  %g1, 0xff, %g1
    7338:	84 01 7f 9f 	add  %g5, -97, %g2
    733c:	80 a0 60 05 	cmp  %g1, 5
    7340:	84 08 a0 ff 	and  %g2, 0xff, %g2
    7344:	88 10 20 00 	clr  %g4
    7348:	89 65 20 01 	movleu  %icc, 1, %g4
    734c:	86 10 20 00 	clr  %g3
    7350:	80 a0 a0 05 	cmp  %g2, 5
    7354:	82 01 7f d0 	add  %g5, -48, %g1
    7358:	87 65 20 01 	movleu  %icc, 1, %g3
    735c:	8b 3b 60 18 	sra  %o5, 0x18, %g5
    7360:	84 01 7f d0 	add  %g5, -48, %g2
    7364:	80 91 00 03 	orcc  %g4, %g3, %g0
    7368:	82 08 60 ff 	and  %g1, 0xff, %g1
    736c:	9b 2a 30 03 	sllx  %o0, 3, %o5
    7370:	12 47 ff e2 	bne,pn   %icc, 72f8 <atoi+0xf8>
    7374:	85 38 a0 00 	sra  %g2, 0, %g2
    7378:	80 a1 60 37 	cmp  %g5, 0x37
    737c:	14 47 ff df 	bg,pn   %icc, 72f8 <atoi+0xf8>
    7380:	80 a0 60 09 	cmp  %g1, 9
    7384:	28 4f ff e5 	bleu,a   %icc, 7318 <atoi+0x118>
    7388:	90 00 80 0d 	add  %g2, %o5, %o0
    738c:	82 01 7f a9 	add  %g5, -87, %g1
    7390:	84 01 7f c9 	add  %g5, -55, %g2
    7394:	80 a1 20 00 	cmp  %g4, 0
    7398:	8b 38 60 00 	sra  %g1, 0, %g5
    739c:	9b 2a 30 03 	sllx  %o0, 3, %o5
    73a0:	02 48 00 07 	be  %icc, 73bc <atoi+0x1bc>
    73a4:	83 38 a0 00 	sra  %g2, 0, %g1
    73a8:	10 6f ff dc 	b  %xcc, 7318 <atoi+0x118>
    73ac:	90 00 40 0d 	add  %g1, %o5, %o0
    73b0:	82 4a 00 0a 	mulx  %o0, %o2, %g1
    73b4:	10 6f ff af 	b  %xcc, 7270 <atoi+0x70>
    73b8:	90 00 c0 01 	add  %g3, %g1, %o0
    73bc:	80 a0 e0 00 	cmp  %g3, 0
    73c0:	02 40 00 2b 	be,pn   %icc, 746c <atoi+0x26c>
    73c4:	01 00 00 00 	nop 
    73c8:	10 6f ff d4 	b  %xcc, 7318 <atoi+0x118>
    73cc:	90 01 40 0d 	add  %g5, %o5, %o0
    73d0:	90 00 40 02 	add  %g1, %g2, %o0
    73d4:	98 03 20 01 	inc  %o4
    73d8:	ca 0b 00 00 	ldub  [ %o4 ], %g5
    73dc:	9b 29 60 18 	sll  %g5, 0x18, %o5
    73e0:	80 a3 60 00 	cmp  %o5, 0
    73e4:	02 40 00 22 	be,pn   %icc, 746c <atoi+0x26c>
    73e8:	01 00 00 00 	nop 
    73ec:	84 01 7f d0 	add  %g5, -48, %g2
    73f0:	84 08 a0 ff 	and  %g2, 0xff, %g2
    73f4:	83 3b 60 18 	sra  %o5, 0x18, %g1
    73f8:	86 01 7f bf 	add  %g5, -65, %g3
    73fc:	82 00 7f d0 	add  %g1, -48, %g1
    7400:	80 a0 a0 09 	cmp  %g2, 9
    7404:	88 08 e0 ff 	and  %g3, 0xff, %g4
    7408:	85 2a 30 04 	sllx  %o0, 4, %g2
    740c:	08 4f ff f1 	bleu  %icc, 73d0 <atoi+0x1d0>
    7410:	83 38 60 00 	sra  %g1, 0, %g1
    7414:	83 3b 60 18 	sra  %o5, 0x18, %g1
    7418:	84 10 00 01 	mov  %g1, %g2
    741c:	86 01 7f 9f 	add  %g5, -97, %g3
    7420:	82 00 7f a9 	add  %g1, -87, %g1
    7424:	84 00 bf c9 	add  %g2, -55, %g2
    7428:	80 a1 20 05 	cmp  %g4, 5
    742c:	8b 38 60 00 	sra  %g1, 0, %g5
    7430:	86 08 e0 ff 	and  %g3, 0xff, %g3
    7434:	9b 2a 30 04 	sllx  %o0, 4, %o5
    7438:	18 48 00 04 	bgu  %icc, 7448 <atoi+0x248>
    743c:	83 38 a0 00 	sra  %g2, 0, %g1
    7440:	10 6f ff e5 	b  %xcc, 73d4 <atoi+0x1d4>
    7444:	90 00 40 0d 	add  %g1, %o5, %o0
    7448:	80 a0 e0 05 	cmp  %g3, 5
    744c:	18 40 00 08 	bgu,pn   %icc, 746c <atoi+0x26c>
    7450:	01 00 00 00 	nop 
    7454:	10 6f ff e0 	b  %xcc, 73d4 <atoi+0x1d4>
    7458:	90 01 40 0d 	add  %g5, %o5, %o0
    745c:	ca 0b 00 00 	ldub  [ %o4 ], %g5
    7460:	82 10 20 10 	mov  0x10, %g1
    7464:	10 6f ff 6e 	b  %xcc, 721c <atoi+0x1c>
    7468:	9b 29 60 18 	sll  %g5, 0x18, %o5
    746c:	81 c3 e0 08 	retl 
    7470:	01 00 00 00 	nop 
    7474:	30 68 00 03 	b,a   %xcc, 7480 <memmove>
    7478:	01 00 00 00 	nop 
    747c:	01 00 00 00 	nop 

0000000000007480 <memmove>:
    7480:	80 a2 00 09 	cmp  %o0, %o1
    7484:	98 10 00 08 	mov  %o0, %o4
    7488:	18 68 00 31 	bgu  %xcc, 754c <memmove+0xcc>
    748c:	9a 10 00 09 	mov  %o1, %o5
    7490:	02 c2 80 2d 	brz,pn   %o2, 7544 <memmove+0xc4>
    7494:	80 a2 a0 07 	cmp  %o2, 7
    7498:	82 02 60 08 	add  %o1, 8, %g1
    749c:	8a 10 20 00 	clr  %g5
    74a0:	8b 67 30 01 	movgu  %xcc, 1, %g5
    74a4:	84 12 40 08 	or  %o1, %o0, %g2
    74a8:	80 a2 00 01 	cmp  %o0, %g1
    74ac:	86 10 20 00 	clr  %g3
    74b0:	82 02 20 08 	add  %o0, 8, %g1
    74b4:	87 67 30 01 	movgu  %xcc, 1, %g3
    74b8:	84 08 a0 07 	and  %g2, 7, %g2
    74bc:	80 a2 40 01 	cmp  %o1, %g1
    74c0:	88 10 20 00 	clr  %g4
    74c4:	82 10 20 00 	clr  %g1
    74c8:	89 67 30 01 	movgu  %xcc, 1, %g4
    74cc:	83 78 a4 01 	movre  %g2, 1, %g1
    74d0:	8a 09 40 01 	and  %g5, %g1, %g5
    74d4:	86 10 c0 04 	or  %g3, %g4, %g3
    74d8:	80 89 40 03 	btst  %g5, %g3
    74dc:	02 40 00 27 	be,pn   %icc, 7578 <memmove+0xf8>
    74e0:	96 02 bf ff 	add  %o2, -1, %o3
    74e4:	89 32 b0 03 	srlx  %o2, 3, %g4
    74e8:	8b 29 30 03 	sllx  %g4, 3, %g5
    74ec:	02 c1 40 0e 	brz,pn   %g5, 7524 <memmove+0xa4>
    74f0:	86 10 20 00 	clr  %g3
    74f4:	84 10 20 00 	clr  %g2
    74f8:	c2 5a 40 02 	ldx  [ %o1 + %g2 ], %g1
    74fc:	86 00 e0 01 	inc  %g3
    7500:	c2 72 00 02 	stx  %g1, [ %o0 + %g2 ]
    7504:	80 a0 c0 04 	cmp  %g3, %g4
    7508:	0a 6f ff fc 	bcs  %xcc, 74f8 <memmove+0x78>
    750c:	84 00 a0 08 	add  %g2, 8, %g2
    7510:	80 a2 80 05 	cmp  %o2, %g5
    7514:	96 22 c0 05 	sub  %o3, %g5, %o3
    7518:	9a 02 40 05 	add  %o1, %g5, %o5
    751c:	02 60 00 0a 	be,pn   %xcc, 7544 <memmove+0xc4>
    7520:	98 02 00 05 	add  %o0, %g5, %o4
    7524:	86 02 e0 01 	add  %o3, 1, %g3
    7528:	84 10 20 00 	clr  %g2
    752c:	c2 0b 40 02 	ldub  [ %o5 + %g2 ], %g1
    7530:	c2 2b 00 02 	stb  %g1, [ %o4 + %g2 ]
    7534:	84 00 a0 01 	inc  %g2
    7538:	80 a0 c0 02 	cmp  %g3, %g2
    753c:	32 6f ff fd 	bne,a   %xcc, 7530 <memmove+0xb0>
    7540:	c2 0b 40 02 	ldub  [ %o5 + %g2 ], %g1
    7544:	81 c3 e0 08 	retl 
    7548:	01 00 00 00 	nop 
    754c:	02 f2 bf fe 	brz,pn   %o2, 7544 <memmove+0xc4>
    7550:	84 02 40 0a 	add  %o1, %o2, %g2
    7554:	86 02 00 0a 	add  %o0, %o2, %g3
    7558:	c2 08 bf ff 	ldub  [ %g2 + -1 ], %g1
    755c:	94 02 bf ff 	add  %o2, -1, %o2
    7560:	c2 28 ff ff 	stb  %g1, [ %g3 + -1 ]
    7564:	84 00 bf ff 	add  %g2, -1, %g2
    7568:	0a fa bf fc 	brnz  %o2, 7558 <memmove+0xd8>
    756c:	86 00 ff ff 	add  %g3, -1, %g3
    7570:	81 c3 e0 08 	retl 
    7574:	01 00 00 00 	nop 
    7578:	84 10 20 00 	clr  %g2	! 0 <start-0x4000>
    757c:	c2 0a 40 02 	ldub  [ %o1 + %g2 ], %g1
    7580:	c2 2a 00 02 	stb  %g1, [ %o0 + %g2 ]
    7584:	84 00 a0 01 	inc  %g2
    7588:	80 a2 80 02 	cmp  %o2, %g2
    758c:	32 6f ff fd 	bne,a   %xcc, 7580 <memmove+0x100>
    7590:	c2 0a 40 02 	ldub  [ %o1 + %g2 ], %g1
    7594:	81 c3 e0 08 	retl 
    7598:	01 00 00 00 	nop 
    759c:	01 00 00 00 	nop 

00000000000075a0 <balloc_init>:
    75a0:	03 00 00 24 	sethi  %hi(0x9000), %g1
    75a4:	d0 70 62 d0 	stx  %o0, [ %g1 + 0x2d0 ]	! 92d0 <ballocs>
    75a8:	d2 72 00 00 	stx  %o1, [ %o0 ]
    75ac:	81 c3 e0 08 	retl 
    75b0:	c0 72 20 08 	clrx  [ %o0 + 8 ]
    75b4:	30 68 00 03 	b,a   %xcc, 75c0 <balloc>
    75b8:	01 00 00 00 	nop 
    75bc:	01 00 00 00 	nop 

00000000000075c0 <balloc>:
    75c0:	03 00 00 24 	sethi  %hi(0x9000), %g1
    75c4:	c6 58 62 d0 	ldx  [ %g1 + 0x2d0 ], %g3	! 92d0 <ballocs>
    75c8:	c4 58 e0 08 	ldx  [ %g3 + 8 ], %g2
    75cc:	92 02 60 03 	add  %o1, 3, %o1
    75d0:	92 0a 7f fc 	and  %o1, -4, %o1
    75d4:	84 00 bf ff 	add  %g2, -1, %g2
    75d8:	84 00 80 09 	add  %g2, %o1, %g2
    75dc:	92 20 00 09 	neg  %o1
    75e0:	92 0a 40 02 	and  %o1, %g2, %o1
    75e4:	84 02 40 08 	add  %o1, %o0, %g2
    75e8:	03 00 00 80 	sethi  %hi(0x20000), %g1
    75ec:	80 a0 80 01 	cmp  %g2, %g1
    75f0:	90 10 20 00 	clr  %o0
    75f4:	18 60 00 04 	bgu,pn   %xcc, 7604 <balloc+0x44>
    75f8:	c2 58 c0 00 	ldx  [ %g3 ], %g1
    75fc:	c4 70 e0 08 	stx  %g2, [ %g3 + 8 ]
    7600:	90 02 40 01 	add  %o1, %g1, %o0
    7604:	81 c3 e0 08 	retl 
    7608:	01 00 00 00 	nop 
    760c:	30 68 00 05 	b,a   %xcc, 7620 <ofw_call>
    7610:	01 00 00 00 	nop 
    7614:	01 00 00 00 	nop 
    7618:	01 00 00 00 	nop 
    761c:	01 00 00 00 	nop 

0000000000007620 <ofw_call>:
    7620:	9d e3 be c0 	save  %sp, -320, %sp
    7624:	8a 07 a8 9f 	add  %fp, 0x89f, %g5
    7628:	f8 77 a8 9f 	stx  %i4, [ %fp + 0x89f ]
    762c:	fa 77 a8 a7 	stx  %i5, [ %fp + 0x8a7 ]
    7630:	f0 77 a7 6f 	stx  %i0, [ %fp + 0x76f ]
    7634:	f2 77 a7 77 	stx  %i1, [ %fp + 0x777 ]
    7638:	f4 77 a7 7f 	stx  %i2, [ %fp + 0x77f ]
    763c:	ca 77 a7 e7 	stx  %g5, [ %fp + 0x7e7 ]
    7640:	80 a6 60 00 	cmp  %i1, 0
    7644:	04 40 00 0f 	ble,pn   %icc, 7680 <ofw_call+0x60>
    7648:	90 07 a7 6f 	add  %fp, 0x76f, %o0
    764c:	82 06 7f ff 	add  %i1, -1, %g1
    7650:	83 30 60 00 	srl  %g1, 0, %g1
    7654:	82 00 60 01 	inc  %g1
    7658:	89 28 70 03 	sllx  %g1, 3, %g4
    765c:	86 10 20 00 	clr  %g3
    7660:	c4 59 40 03 	ldx  [ %g5 + %g3 ], %g2
    7664:	82 02 00 03 	add  %o0, %g3, %g1
    7668:	86 00 e0 08 	add  %g3, 8, %g3
    766c:	80 a0 c0 04 	cmp  %g3, %g4
    7670:	12 6f ff fc 	bne  %xcc, 7660 <ofw_call+0x40>
    7674:	c4 70 60 18 	stx  %g2, [ %g1 + 0x18 ]
    7678:	82 01 40 03 	add  %g5, %g3, %g1
    767c:	c2 77 a7 e7 	stx  %g1, [ %fp + 0x7e7 ]
    7680:	80 a6 a0 00 	cmp  %i2, 0
    7684:	04 40 00 23 	ble,pn   %icc, 7710 <ofw_call+0xf0>
    7688:	84 10 20 00 	clr  %g2
    768c:	ba 07 a7 ef 	add  %fp, 0x7ef, %i5
    7690:	b8 10 00 19 	mov  %i1, %i4
    7694:	82 07 00 02 	add  %i4, %g2, %g1
    7698:	83 38 60 00 	sra  %g1, 0, %g1
    769c:	82 00 60 02 	add  %g1, 2, %g1
    76a0:	83 28 70 03 	sllx  %g1, 3, %g1
    76a4:	82 07 40 01 	add  %i5, %g1, %g1
    76a8:	84 00 a0 01 	inc  %g2
    76ac:	80 a6 80 02 	cmp  %i2, %g2
    76b0:	14 4f ff f9 	bg  %icc, 7694 <ofw_call+0x74>
    76b4:	c0 70 7f 88 	clrx  [ %g1 + -120 ]
    76b8:	40 00 05 64 	call  8c48 <ofw>
    76bc:	01 00 00 00 	nop 
    76c0:	80 a6 a0 01 	cmp  %i2, 1
    76c4:	04 40 00 0f 	ble,pn   %icc, 7700 <ofw_call+0xe0>
    76c8:	82 06 60 02 	add  %i1, 2, %g1
    76cc:	86 10 20 01 	mov  1, %g3
    76d0:	82 00 c0 1c 	add  %g3, %i4, %g1
    76d4:	83 38 60 00 	sra  %g1, 0, %g1
    76d8:	82 00 60 02 	add  %g1, 2, %g1
    76dc:	83 28 70 03 	sllx  %g1, 3, %g1
    76e0:	82 07 40 01 	add  %i5, %g1, %g1
    76e4:	c4 58 7f 88 	ldx  [ %g1 + -120 ], %g2
    76e8:	86 00 e0 01 	inc  %g3
    76ec:	c4 76 c0 00 	stx  %g2, [ %i3 ]
    76f0:	80 a0 c0 1a 	cmp  %g3, %i2
    76f4:	06 4f ff f7 	bl  %icc, 76d0 <ofw_call+0xb0>
    76f8:	b6 06 e0 08 	add  %i3, 8, %i3
    76fc:	82 06 60 02 	add  %i1, 2, %g1
    7700:	83 28 70 03 	sllx  %g1, 3, %g1
    7704:	82 07 40 01 	add  %i5, %g1, %g1
    7708:	81 cf e0 08 	rett  %i7 + 8
    770c:	d0 58 7f 88 	ldx  [ %g1 + -120 ], %o0
    7710:	40 00 05 4e 	call  8c48 <ofw>
    7714:	ba 07 a7 ef 	add  %fp, 0x7ef, %i5
    7718:	10 6f ff fa 	b  %xcc, 7700 <ofw_call+0xe0>
    771c:	82 06 60 02 	add  %i1, 2, %g1

0000000000007720 <ofw_quiesce>:
    7720:	11 00 00 23 	sethi  %hi(0x8c00), %o0
    7724:	90 12 23 50 	or  %o0, 0x350, %o0	! 8f50 <ofw+0x308>
    7728:	92 10 20 00 	clr  %o1
    772c:	94 10 20 00 	clr  %o2
    7730:	96 10 20 00 	clr  %o3
    7734:	82 13 c0 00 	mov  %o7, %g1
    7738:	7f ff ff ba 	call  7620 <ofw_call>
    773c:	9e 10 40 00 	mov  %g1, %o7
    7740:	01 00 00 00 	nop 
    7744:	30 68 00 07 	b,a   %xcc, 7760 <ofw_map>
    7748:	01 00 00 00 	nop 
    774c:	01 00 00 00 	nop 
    7750:	01 00 00 00 	nop 
    7754:	01 00 00 00 	nop 
    7758:	01 00 00 00 	nop 
    775c:	01 00 00 00 	nop 

0000000000007760 <ofw_map>:
    7760:	9d e3 bf 10 	save  %sp, -240, %sp
    7764:	03 00 00 26 	sethi  %hi(0x9800), %g1
    7768:	da 00 61 78 	ld  [ %g1 + 0x178 ], %o5	! 9978 <ofw_mmu>
    776c:	11 00 00 23 	sethi  %hi(0x8c00), %o0
    7770:	19 00 00 23 	sethi  %hi(0x8c00), %o4
    7774:	83 36 20 00 	srl  %i0, 0, %g1
    7778:	98 13 23 68 	or  %o4, 0x368, %o4
    777c:	b1 36 30 20 	srlx  %i0, 0x20, %i0
    7780:	92 10 20 07 	mov  7, %o1
    7784:	94 10 20 01 	mov  1, %o2
    7788:	96 10 20 00 	clr  %o3
    778c:	90 12 23 58 	or  %o0, 0x358, %o0
    7790:	f0 73 a8 c7 	stx  %i0, [ %sp + 0x8c7 ]
    7794:	f6 73 a8 af 	stx  %i3, [ %sp + 0x8af ]
    7798:	f4 73 a8 b7 	stx  %i2, [ %sp + 0x8b7 ]
    779c:	f2 73 a8 bf 	stx  %i1, [ %sp + 0x8bf ]
    77a0:	7f ff ff a0 	call  7620 <ofw_call>
    77a4:	c2 73 a8 cf 	stx  %g1, [ %sp + 0x8cf ]
    77a8:	b1 3a 20 00 	sra  %o0, 0, %i0
    77ac:	81 cf e0 08 	rett  %i7 + 8
    77b0:	01 00 00 00 	nop 
    77b4:	30 68 00 03 	b,a   %xcc, 77c0 <ofw_claim_phys>
    77b8:	01 00 00 00 	nop 
    77bc:	01 00 00 00 	nop 

00000000000077c0 <ofw_claim_phys>:
    77c0:	9d e3 bf 10 	save  %sp, -240, %sp
    77c4:	03 00 00 26 	sethi  %hi(0x9800), %g1
    77c8:	da 00 61 60 	ld  [ %g1 + 0x160 ], %o5	! 9960 <ofw_memory_prop>
    77cc:	11 00 00 23 	sethi  %hi(0x8c00), %o0
    77d0:	19 00 00 23 	sethi  %hi(0x8c00), %o4
    77d4:	83 36 20 00 	srl  %i0, 0, %g1
    77d8:	90 12 23 58 	or  %o0, 0x358, %o0
    77dc:	b1 36 30 20 	srlx  %i0, 0x20, %i0
    77e0:	98 13 23 70 	or  %o4, 0x370, %o4
    77e4:	92 10 20 06 	mov  6, %o1
    77e8:	94 10 20 03 	mov  3, %o2
    77ec:	96 07 a7 df 	add  %fp, 0x7df, %o3
    77f0:	f2 73 a8 b7 	stx  %i1, [ %sp + 0x8b7 ]
    77f4:	f0 73 a8 bf 	stx  %i0, [ %sp + 0x8bf ]
    77f8:	c2 73 a8 c7 	stx  %g1, [ %sp + 0x8c7 ]
    77fc:	7f ff ff 89 	call  7620 <ofw_call>
    7800:	c0 73 a8 af 	clrx  [ %sp + 0x8af ]
    7804:	22 ca 00 08 	brz,a   %o0, 7824 <ofw_claim_phys+0x64>
    7808:	f0 5f a7 df 	ldx  [ %fp + 0x7df ], %i0
    780c:	11 00 00 23 	sethi  %hi(0x8c00), %o0
    7810:	7f ff fc 84 	call  6a20 <puts>
    7814:	90 12 23 78 	or  %o0, 0x378, %o0	! 8f78 <ofw+0x330>
    7818:	40 00 04 ca 	call  8b40 <halt>
    781c:	01 00 00 00 	nop 
    7820:	f0 5f a7 df 	ldx  [ %fp + 0x7df ], %i0
    7824:	c2 5f a7 e7 	ldx  [ %fp + 0x7e7 ], %g1
    7828:	b1 2e 30 20 	sllx  %i0, 0x20, %i0
    782c:	81 cf e0 08 	rett  %i7 + 8
    7830:	90 12 00 01 	or  %o0, %g1, %o0
    7834:	30 68 00 03 	b,a   %xcc, 7840 <ofw_claim_virt>
    7838:	01 00 00 00 	nop 
    783c:	01 00 00 00 	nop 

0000000000007840 <ofw_claim_virt>:
    7840:	9d e3 bf 10 	save  %sp, -240, %sp
    7844:	03 00 00 26 	sethi  %hi(0x9800), %g1
    7848:	da 00 61 78 	ld  [ %g1 + 0x178 ], %o5	! 9978 <ofw_mmu>
    784c:	11 00 00 23 	sethi  %hi(0x8c00), %o0
    7850:	19 00 00 23 	sethi  %hi(0x8c00), %o4
    7854:	90 12 23 58 	or  %o0, 0x358, %o0
    7858:	98 13 23 70 	or  %o4, 0x370, %o4
    785c:	92 10 20 05 	mov  5, %o1
    7860:	94 10 20 02 	mov  2, %o2
    7864:	96 07 a7 e7 	add  %fp, 0x7e7, %o3
    7868:	f2 73 a8 b7 	stx  %i1, [ %sp + 0x8b7 ]
    786c:	f0 73 a8 bf 	stx  %i0, [ %sp + 0x8bf ]
    7870:	7f ff ff 6c 	call  7620 <ofw_call>
    7874:	c0 73 a8 af 	clrx  [ %sp + 0x8af ]
    7878:	22 ca 00 08 	brz,a   %o0, 7898 <ofw_claim_virt+0x58>
    787c:	f0 5f a7 e7 	ldx  [ %fp + 0x7e7 ], %i0
    7880:	11 00 00 23 	sethi  %hi(0x8c00), %o0
    7884:	7f ff fc 67 	call  6a20 <puts>
    7888:	90 12 23 a8 	or  %o0, 0x3a8, %o0	! 8fa8 <ofw+0x360>
    788c:	40 00 04 ad 	call  8b40 <halt>
    7890:	01 00 00 00 	nop 
    7894:	f0 5f a7 e7 	ldx  [ %fp + 0x7e7 ], %i0
    7898:	81 cf e0 08 	rett  %i7 + 8
    789c:	01 00 00 00 	nop 

00000000000078a0 <ofw_translate>:
    78a0:	9d e3 bf 10 	save  %sp, -240, %sp
    78a4:	03 00 00 26 	sethi  %hi(0x9800), %g1
    78a8:	da 00 61 78 	ld  [ %g1 + 0x178 ], %o5	! 9978 <ofw_mmu>
    78ac:	11 00 00 23 	sethi  %hi(0x8c00), %o0
    78b0:	19 00 00 23 	sethi  %hi(0x8c00), %o4
    78b4:	90 12 23 58 	or  %o0, 0x358, %o0
    78b8:	98 13 23 d8 	or  %o4, 0x3d8, %o4
    78bc:	92 10 20 03 	mov  3, %o1
    78c0:	94 10 20 05 	mov  5, %o2
    78c4:	96 07 a7 cf 	add  %fp, 0x7cf, %o3
    78c8:	7f ff ff 56 	call  7620 <ofw_call>
    78cc:	f0 73 a8 af 	stx  %i0, [ %sp + 0x8af ]
    78d0:	0a c2 00 0d 	brnz,pn   %o0, 7904 <ofw_translate+0x64>
    78d4:	11 00 00 23 	sethi  %hi(0x8c00), %o0
    78d8:	40 00 03 ba 	call  87c0 <ofw_translate_failed>
    78dc:	d0 5f a7 cf 	ldx  [ %fp + 0x7cf ], %o0
    78e0:	80 a2 20 00 	cmp  %o0, 0
    78e4:	12 40 00 06 	bne,pn   %icc, 78fc <ofw_translate+0x5c>
    78e8:	b0 10 20 00 	clr  %i0
    78ec:	c2 5f a7 df 	ldx  [ %fp + 0x7df ], %g1
    78f0:	c4 5f a7 e7 	ldx  [ %fp + 0x7e7 ], %g2
    78f4:	83 28 70 20 	sllx  %g1, 0x20, %g1
    78f8:	b0 10 40 02 	or  %g1, %g2, %i0
    78fc:	81 cf e0 08 	rett  %i7 + 8
    7900:	01 00 00 00 	nop 
    7904:	7f ff fc 47 	call  6a20 <puts>
    7908:	90 12 23 e8 	or  %o0, 0x3e8, %o0
    790c:	40 00 04 8d 	call  8b40 <halt>
    7910:	01 00 00 00 	nop 
    7914:	10 6f ff f1 	b  %xcc, 78d8 <ofw_translate+0x38>
    7918:	01 00 00 00 	nop 
    791c:	01 00 00 00 	nop 

0000000000007920 <ofw_write>:
    7920:	9d e3 bf 30 	save  %sp, -208, %sp
    7924:	03 00 00 26 	sethi  %hi(0x9800), %g1
    7928:	d8 00 61 64 	ld  [ %g1 + 0x164 ], %o4	! 9964 <ofw_stdout>
    792c:	80 a3 20 00 	cmp  %o4, 0
    7930:	02 48 00 0a 	be  %icc, 7958 <ofw_write+0x38>
    7934:	9a 10 00 18 	mov  %i0, %o5
    7938:	11 00 00 24 	sethi  %hi(0x9000), %o0
    793c:	99 33 20 00 	srl  %o4, 0, %o4
    7940:	92 10 20 03 	mov  3, %o1
    7944:	94 10 20 01 	mov  1, %o2
    7948:	96 10 20 00 	clr  %o3
    794c:	90 12 20 18 	or  %o0, 0x18, %o0
    7950:	7f ff ff 34 	call  7620 <ofw_call>
    7954:	f2 73 a8 af 	stx  %i1, [ %sp + 0x8af ]
    7958:	81 cf e0 08 	rett  %i7 + 8
    795c:	01 00 00 00 	nop 

0000000000007960 <ofw_get_peer_node>:
    7960:	9d e3 bf 40 	save  %sp, -192, %sp
    7964:	11 00 00 24 	sethi  %hi(0x9000), %o0
    7968:	98 10 00 18 	mov  %i0, %o4
    796c:	92 10 20 01 	mov  1, %o1
    7970:	94 10 20 01 	mov  1, %o2
    7974:	96 10 20 00 	clr  %o3
    7978:	7f ff ff 2a 	call  7620 <ofw_call>
    797c:	90 12 20 20 	or  %o0, 0x20, %o0
    7980:	b1 32 20 00 	srl  %o0, 0, %i0
    7984:	81 cf e0 08 	rett  %i7 + 8
    7988:	01 00 00 00 	nop 
    798c:	30 68 00 05 	b,a   %xcc, 79a0 <ofw_get_child_node>
    7990:	01 00 00 00 	nop 
    7994:	01 00 00 00 	nop 
    7998:	01 00 00 00 	nop 
    799c:	01 00 00 00 	nop 

00000000000079a0 <ofw_get_child_node>:
    79a0:	9d e3 bf 40 	save  %sp, -192, %sp
    79a4:	11 00 00 24 	sethi  %hi(0x9000), %o0
    79a8:	98 10 00 18 	mov  %i0, %o4
    79ac:	92 10 20 01 	mov  1, %o1
    79b0:	94 10 20 01 	mov  1, %o2
    79b4:	96 10 20 00 	clr  %o3
    79b8:	7f ff ff 1a 	call  7620 <ofw_call>
    79bc:	90 12 20 28 	or  %o0, 0x28, %o0
    79c0:	b1 32 20 00 	srl  %o0, 0, %i0
    79c4:	81 cf e0 08 	rett  %i7 + 8
    79c8:	01 00 00 00 	nop 
    79cc:	30 68 00 05 	b,a   %xcc, 79e0 <ofw_package_to_path>
    79d0:	01 00 00 00 	nop 
    79d4:	01 00 00 00 	nop 
    79d8:	01 00 00 00 	nop 
    79dc:	01 00 00 00 	nop 

00000000000079e0 <ofw_package_to_path>:
    79e0:	9d e3 bf 30 	save  %sp, -208, %sp
    79e4:	11 00 00 24 	sethi  %hi(0x9000), %o0
    79e8:	98 10 00 18 	mov  %i0, %o4
    79ec:	9a 10 00 19 	mov  %i1, %o5
    79f0:	92 10 20 03 	mov  3, %o1
    79f4:	94 10 20 01 	mov  1, %o2
    79f8:	96 10 20 00 	clr  %o3
    79fc:	90 12 20 30 	or  %o0, 0x30, %o0
    7a00:	7f ff ff 08 	call  7620 <ofw_call>
    7a04:	f4 73 a8 af 	stx  %i2, [ %sp + 0x8af ]
    7a08:	b1 3a 20 00 	sra  %o0, 0, %i0
    7a0c:	81 cf e0 08 	rett  %i7 + 8
    7a10:	01 00 00 00 	nop 
    7a14:	30 68 00 03 	b,a   %xcc, 7a20 <ofw_next_property>
    7a18:	01 00 00 00 	nop 
    7a1c:	01 00 00 00 	nop 

0000000000007a20 <ofw_next_property>:
    7a20:	9d e3 bf 30 	save  %sp, -208, %sp
    7a24:	11 00 00 24 	sethi  %hi(0x9000), %o0
    7a28:	98 10 00 18 	mov  %i0, %o4
    7a2c:	9a 10 00 19 	mov  %i1, %o5
    7a30:	92 10 20 03 	mov  3, %o1
    7a34:	94 10 20 01 	mov  1, %o2
    7a38:	96 10 20 00 	clr  %o3
    7a3c:	90 12 20 40 	or  %o0, 0x40, %o0
    7a40:	7f ff fe f8 	call  7620 <ofw_call>
    7a44:	f4 73 a8 af 	stx  %i2, [ %sp + 0x8af ]
    7a48:	b1 3a 20 00 	sra  %o0, 0, %i0
    7a4c:	81 cf e0 08 	rett  %i7 + 8
    7a50:	01 00 00 00 	nop 
    7a54:	30 68 00 03 	b,a   %xcc, 7a60 <ofw_get_proplen>
    7a58:	01 00 00 00 	nop 
    7a5c:	01 00 00 00 	nop 

0000000000007a60 <ofw_get_proplen>:
    7a60:	9d e3 bf 40 	save  %sp, -192, %sp
    7a64:	11 00 00 24 	sethi  %hi(0x9000), %o0
    7a68:	98 10 00 18 	mov  %i0, %o4
    7a6c:	9a 10 00 19 	mov  %i1, %o5
    7a70:	92 10 20 02 	mov  2, %o1
    7a74:	94 10 20 01 	mov  1, %o2
    7a78:	96 10 20 00 	clr  %o3
    7a7c:	7f ff fe e9 	call  7620 <ofw_call>
    7a80:	90 12 20 50 	or  %o0, 0x50, %o0
    7a84:	b1 3a 20 00 	sra  %o0, 0, %i0
    7a88:	81 cf e0 08 	rett  %i7 + 8
    7a8c:	01 00 00 00 	nop 
    7a90:	30 68 00 04 	b,a   %xcc, 7aa0 <ofw_get_property>
    7a94:	01 00 00 00 	nop 
    7a98:	01 00 00 00 	nop 
    7a9c:	01 00 00 00 	nop 

0000000000007aa0 <ofw_get_property>:
    7aa0:	9d e3 bf 30 	save  %sp, -208, %sp
    7aa4:	11 00 00 24 	sethi  %hi(0x9000), %o0
    7aa8:	98 10 00 18 	mov  %i0, %o4
    7aac:	9a 10 00 19 	mov  %i1, %o5
    7ab0:	92 10 20 04 	mov  4, %o1
    7ab4:	94 10 20 01 	mov  1, %o2
    7ab8:	96 10 20 00 	clr  %o3
    7abc:	90 12 20 60 	or  %o0, 0x60, %o0
    7ac0:	f4 73 a8 af 	stx  %i2, [ %sp + 0x8af ]
    7ac4:	7f ff fe d7 	call  7620 <ofw_call>
    7ac8:	f6 73 a8 b7 	stx  %i3, [ %sp + 0x8b7 ]
    7acc:	b1 3a 20 00 	sra  %o0, 0, %i0
    7ad0:	81 cf e0 08 	rett  %i7 + 8
    7ad4:	01 00 00 00 	nop 
    7ad8:	01 00 00 00 	nop 
    7adc:	01 00 00 00 	nop 

0000000000007ae0 <ofw_get_size_cells>:
    7ae0:	9d e3 bf 20 	save  %sp, -224, %sp
    7ae4:	21 00 00 24 	sethi  %hi(0x9000), %l0
    7ae8:	23 00 00 24 	sethi  %hi(0x9000), %l1
    7aec:	98 10 00 18 	mov  %i0, %o4
    7af0:	a4 10 20 04 	mov  4, %l2
    7af4:	b0 07 a7 eb 	add  %fp, 0x7eb, %i0
    7af8:	90 14 20 60 	or  %l0, 0x60, %o0
    7afc:	92 10 20 04 	mov  4, %o1
    7b00:	94 10 20 01 	mov  1, %o2
    7b04:	96 10 20 00 	clr  %o3
    7b08:	9a 14 60 68 	or  %l1, 0x68, %o5
    7b0c:	f0 73 a8 af 	stx  %i0, [ %sp + 0x8af ]
    7b10:	7f ff fe c4 	call  7620 <ofw_call>
    7b14:	e4 73 a8 b7 	stx  %l2, [ %sp + 0x8b7 ]
    7b18:	80 a2 20 00 	cmp  %o0, 0
    7b1c:	04 40 00 05 	ble,pn   %icc, 7b30 <ofw_get_size_cells+0x50>
    7b20:	03 00 00 26 	sethi  %hi(0x9800), %g1
    7b24:	f0 07 a7 eb 	ld  [ %fp + 0x7eb ], %i0
    7b28:	81 cf e0 08 	rett  %i7 + 8
    7b2c:	01 00 00 00 	nop 
    7b30:	d8 00 61 6c 	ld  [ %g1 + 0x16c ], %o4
    7b34:	90 14 20 60 	or  %l0, 0x60, %o0
    7b38:	9a 14 60 68 	or  %l1, 0x68, %o5
    7b3c:	92 10 20 04 	mov  4, %o1
    7b40:	94 10 20 01 	mov  1, %o2
    7b44:	96 10 20 00 	clr  %o3
    7b48:	f0 73 a8 af 	stx  %i0, [ %sp + 0x8af ]
    7b4c:	7f ff fe b5 	call  7620 <ofw_call>
    7b50:	e4 73 a8 b7 	stx  %l2, [ %sp + 0x8b7 ]
    7b54:	80 a2 20 00 	cmp  %o0, 0
    7b58:	34 4f ff f4 	bg,a   %icc, 7b28 <ofw_get_size_cells+0x48>
    7b5c:	f0 07 a7 eb 	ld  [ %fp + 0x7eb ], %i0
    7b60:	82 10 20 02 	mov  2, %g1
    7b64:	10 6f ff f0 	b  %xcc, 7b24 <ofw_get_size_cells+0x44>
    7b68:	c2 27 a7 eb 	st  %g1, [ %fp + 0x7eb ]
    7b6c:	30 68 00 05 	b,a   %xcc, 7b80 <ofw_get_address_cells>
    7b70:	01 00 00 00 	nop 
    7b74:	01 00 00 00 	nop 
    7b78:	01 00 00 00 	nop 
    7b7c:	01 00 00 00 	nop 

0000000000007b80 <ofw_get_address_cells>:
    7b80:	9d e3 bf 20 	save  %sp, -224, %sp
    7b84:	21 00 00 24 	sethi  %hi(0x9000), %l0
    7b88:	23 00 00 24 	sethi  %hi(0x9000), %l1
    7b8c:	98 10 00 18 	mov  %i0, %o4
    7b90:	82 10 20 01 	mov  1, %g1
    7b94:	b0 07 a7 eb 	add  %fp, 0x7eb, %i0
    7b98:	a4 10 20 04 	mov  4, %l2
    7b9c:	90 14 20 60 	or  %l0, 0x60, %o0
    7ba0:	92 10 20 04 	mov  4, %o1
    7ba4:	94 10 20 01 	mov  1, %o2
    7ba8:	96 10 20 00 	clr  %o3
    7bac:	9a 14 60 78 	or  %l1, 0x78, %o5
    7bb0:	c2 27 a7 eb 	st  %g1, [ %fp + 0x7eb ]
    7bb4:	f0 73 a8 af 	stx  %i0, [ %sp + 0x8af ]
    7bb8:	7f ff fe 9a 	call  7620 <ofw_call>
    7bbc:	e4 73 a8 b7 	stx  %l2, [ %sp + 0x8b7 ]
    7bc0:	80 a2 20 00 	cmp  %o0, 0
    7bc4:	04 40 00 05 	ble,pn   %icc, 7bd8 <ofw_get_address_cells+0x58>
    7bc8:	03 00 00 26 	sethi  %hi(0x9800), %g1
    7bcc:	f0 07 a7 eb 	ld  [ %fp + 0x7eb ], %i0
    7bd0:	81 cf e0 08 	rett  %i7 + 8
    7bd4:	01 00 00 00 	nop 
    7bd8:	d8 00 61 6c 	ld  [ %g1 + 0x16c ], %o4
    7bdc:	90 14 20 60 	or  %l0, 0x60, %o0
    7be0:	9a 14 60 78 	or  %l1, 0x78, %o5
    7be4:	92 10 20 04 	mov  4, %o1
    7be8:	94 10 20 01 	mov  1, %o2
    7bec:	96 10 20 00 	clr  %o3
    7bf0:	f0 73 a8 af 	stx  %i0, [ %sp + 0x8af ]
    7bf4:	7f ff fe 8b 	call  7620 <ofw_call>
    7bf8:	e4 73 a8 b7 	stx  %l2, [ %sp + 0x8b7 ]
    7bfc:	80 a2 20 00 	cmp  %o0, 0
    7c00:	34 4f ff f4 	bg,a   %icc, 7bd0 <ofw_get_address_cells+0x50>
    7c04:	f0 07 a7 eb 	ld  [ %fp + 0x7eb ], %i0
    7c08:	82 10 20 02 	mov  2, %g1
    7c0c:	10 6f ff f0 	b  %xcc, 7bcc <ofw_get_address_cells+0x4c>
    7c10:	c2 27 a7 eb 	st  %g1, [ %fp + 0x7eb ]
    7c14:	30 68 00 03 	b,a   %xcc, 7c20 <ofw_find_device>
    7c18:	01 00 00 00 	nop 
    7c1c:	01 00 00 00 	nop 

0000000000007c20 <ofw_find_device>:
    7c20:	9d e3 bf 40 	save  %sp, -192, %sp
    7c24:	11 00 00 24 	sethi  %hi(0x9000), %o0
    7c28:	98 10 00 18 	mov  %i0, %o4
    7c2c:	92 10 20 01 	mov  1, %o1
    7c30:	94 10 20 01 	mov  1, %o2
    7c34:	96 10 20 00 	clr  %o3
    7c38:	7f ff fe 7a 	call  7620 <ofw_call>
    7c3c:	90 12 20 88 	or  %o0, 0x88, %o0
    7c40:	b1 32 20 00 	srl  %o0, 0, %i0
    7c44:	81 cf e0 08 	rett  %i7 + 8
    7c48:	01 00 00 00 	nop 
    7c4c:	30 68 00 05 	b,a   %xcc, 7c60 <ofw_init>
    7c50:	01 00 00 00 	nop 
    7c54:	01 00 00 00 	nop 
    7c58:	01 00 00 00 	nop 
    7c5c:	01 00 00 00 	nop 

0000000000007c60 <ofw_init>:
    7c60:	9d e3 bf 30 	save  %sp, -208, %sp
    7c64:	27 00 00 24 	sethi  %hi(0x9000), %l3
    7c68:	19 00 00 24 	sethi  %hi(0x9000), %o4
    7c6c:	98 13 20 98 	or  %o4, 0x98, %o4	! 9098 <ofw+0x450>
    7c70:	90 14 e0 88 	or  %l3, 0x88, %o0
    7c74:	92 10 20 01 	mov  1, %o1
    7c78:	94 10 20 01 	mov  1, %o2
    7c7c:	7f ff fe 69 	call  7620 <ofw_call>
    7c80:	96 10 20 00 	clr  %o3
    7c84:	21 00 00 26 	sethi  %hi(0x9800), %l0
    7c88:	80 a2 3f ff 	cmp  %o0, -1
    7c8c:	02 40 00 73 	be,pn   %icc, 7e58 <ofw_init+0x1f8>
    7c90:	d0 24 21 5c 	st  %o0, [ %l0 + 0x15c ]
    7c94:	d8 04 21 5c 	ld  [ %l0 + 0x15c ], %o4
    7c98:	25 00 00 26 	sethi  %hi(0x9800), %l2
    7c9c:	23 00 00 24 	sethi  %hi(0x9000), %l1
    7ca0:	1b 00 00 24 	sethi  %hi(0x9000), %o5
    7ca4:	84 14 a1 64 	or  %l2, 0x164, %g2
    7ca8:	82 10 20 04 	mov  4, %g1
    7cac:	9a 13 60 a0 	or  %o5, 0xa0, %o5
    7cb0:	90 14 60 60 	or  %l1, 0x60, %o0
    7cb4:	92 10 20 04 	mov  4, %o1
    7cb8:	94 10 20 01 	mov  1, %o2
    7cbc:	96 10 20 00 	clr  %o3
    7cc0:	c4 73 a8 af 	stx  %g2, [ %sp + 0x8af ]
    7cc4:	7f ff fe 57 	call  7620 <ofw_call>
    7cc8:	c2 73 a8 b7 	stx  %g1, [ %sp + 0x8b7 ]
    7ccc:	80 a2 20 00 	cmp  %o0, 0
    7cd0:	04 40 00 44 	ble,pn   %icc, 7de0 <ofw_init+0x180>
    7cd4:	19 00 00 23 	sethi  %hi(0x8c00), %o4
    7cd8:	98 13 20 78 	or  %o4, 0x78, %o4	! 8c78 <ofw+0x30>
    7cdc:	90 14 e0 88 	or  %l3, 0x88, %o0
    7ce0:	92 10 20 01 	mov  1, %o1
    7ce4:	94 10 20 01 	mov  1, %o2
    7ce8:	7f ff fe 4e 	call  7620 <ofw_call>
    7cec:	96 10 20 00 	clr  %o3
    7cf0:	03 00 00 26 	sethi  %hi(0x9800), %g1
    7cf4:	80 a2 3f ff 	cmp  %o0, -1
    7cf8:	02 40 00 45 	be,pn   %icc, 7e0c <ofw_init+0x1ac>
    7cfc:	d0 20 61 6c 	st  %o0, [ %g1 + 0x16c ]
    7d00:	d8 04 21 5c 	ld  [ %l0 + 0x15c ], %o4
    7d04:	1b 00 00 24 	sethi  %hi(0x9000), %o5
    7d08:	03 00 00 26 	sethi  %hi(0x9800), %g1
    7d0c:	82 10 61 78 	or  %g1, 0x178, %g1	! 9978 <ofw_mmu>
    7d10:	84 10 20 04 	mov  4, %g2
    7d14:	9a 13 60 d8 	or  %o5, 0xd8, %o5
    7d18:	90 14 60 60 	or  %l1, 0x60, %o0
    7d1c:	92 10 20 04 	mov  4, %o1
    7d20:	94 10 20 01 	mov  1, %o2
    7d24:	96 10 20 00 	clr  %o3
    7d28:	c2 73 a8 af 	stx  %g1, [ %sp + 0x8af ]
    7d2c:	7f ff fe 3d 	call  7620 <ofw_call>
    7d30:	c4 73 a8 b7 	stx  %g2, [ %sp + 0x8b7 ]
    7d34:	80 a2 20 00 	cmp  %o0, 0
    7d38:	04 40 00 4c 	ble,pn   %icc, 7e68 <ofw_init+0x208>
    7d3c:	11 00 00 24 	sethi  %hi(0x9000), %o0
    7d40:	d8 04 21 5c 	ld  [ %l0 + 0x15c ], %o4
    7d44:	1b 00 00 24 	sethi  %hi(0x9000), %o5
    7d48:	03 00 00 26 	sethi  %hi(0x9800), %g1
    7d4c:	82 10 61 60 	or  %g1, 0x160, %g1	! 9960 <ofw_memory_prop>
    7d50:	84 10 20 04 	mov  4, %g2
    7d54:	90 14 60 60 	or  %l1, 0x60, %o0
    7d58:	9a 13 61 10 	or  %o5, 0x110, %o5
    7d5c:	92 10 20 04 	mov  4, %o1
    7d60:	94 10 20 01 	mov  1, %o2
    7d64:	96 10 20 00 	clr  %o3
    7d68:	c2 73 a8 af 	stx  %g1, [ %sp + 0x8af ]
    7d6c:	7f ff fe 2d 	call  7620 <ofw_call>
    7d70:	c4 73 a8 b7 	stx  %g2, [ %sp + 0x8b7 ]
    7d74:	80 a2 20 00 	cmp  %o0, 0
    7d78:	04 40 00 42 	ble,pn   %icc, 7e80 <ofw_init+0x220>
    7d7c:	11 00 00 24 	sethi  %hi(0x9000), %o0
    7d80:	19 00 00 24 	sethi  %hi(0x9000), %o4
    7d84:	98 13 21 50 	or  %o4, 0x150, %o4	! 9150 <ofw+0x508>
    7d88:	90 14 e0 88 	or  %l3, 0x88, %o0
    7d8c:	92 10 20 01 	mov  1, %o1
    7d90:	94 10 20 01 	mov  1, %o2
    7d94:	7f ff fe 23 	call  7620 <ofw_call>
    7d98:	96 10 20 00 	clr  %o3
    7d9c:	03 00 00 26 	sethi  %hi(0x9800), %g1
    7da0:	80 a2 3f ff 	cmp  %o0, -1
    7da4:	02 40 00 26 	be,pn   %icc, 7e3c <ofw_init+0x1dc>
    7da8:	d0 20 61 68 	st  %o0, [ %g1 + 0x168 ]
    7dac:	19 00 00 24 	sethi  %hi(0x9000), %o4
    7db0:	90 14 e0 88 	or  %l3, 0x88, %o0
    7db4:	98 13 21 90 	or  %o4, 0x190, %o4
    7db8:	92 10 20 01 	mov  1, %o1
    7dbc:	94 10 20 01 	mov  1, %o2
    7dc0:	7f ff fe 18 	call  7620 <ofw_call>
    7dc4:	96 10 20 00 	clr  %o3
    7dc8:	03 00 00 26 	sethi  %hi(0x9800), %g1
    7dcc:	80 a2 3f ff 	cmp  %o0, -1
    7dd0:	02 40 00 16 	be,pn   %icc, 7e28 <ofw_init+0x1c8>
    7dd4:	d0 20 61 58 	st  %o0, [ %g1 + 0x158 ]
    7dd8:	81 cf e0 08 	rett  %i7 + 8
    7ddc:	01 00 00 00 	nop 
    7de0:	98 13 20 78 	or  %o4, 0x78, %o4
    7de4:	90 14 e0 88 	or  %l3, 0x88, %o0
    7de8:	92 10 20 01 	mov  1, %o1
    7dec:	94 10 20 01 	mov  1, %o2
    7df0:	96 10 20 00 	clr  %o3
    7df4:	7f ff fe 0b 	call  7620 <ofw_call>
    7df8:	c0 24 a1 64 	clr  [ %l2 + 0x164 ]
    7dfc:	03 00 00 26 	sethi  %hi(0x9800), %g1
    7e00:	80 a2 3f ff 	cmp  %o0, -1
    7e04:	12 4f ff bf 	bne  %icc, 7d00 <ofw_init+0xa0>
    7e08:	d0 20 61 6c 	st  %o0, [ %g1 + 0x16c ]
    7e0c:	11 00 00 24 	sethi  %hi(0x9000), %o0
    7e10:	7f ff fb 04 	call  6a20 <puts>
    7e14:	90 12 20 a8 	or  %o0, 0xa8, %o0	! 90a8 <ofw+0x460>
    7e18:	40 00 03 4a 	call  8b40 <halt>
    7e1c:	01 00 00 00 	nop 
    7e20:	10 6f ff b9 	b  %xcc, 7d04 <ofw_init+0xa4>
    7e24:	d8 04 21 5c 	ld  [ %l0 + 0x15c ], %o4
    7e28:	11 00 00 24 	sethi  %hi(0x9000), %o0
    7e2c:	7f ff fa fd 	call  6a20 <puts>
    7e30:	90 12 21 a0 	or  %o0, 0x1a0, %o0	! 91a0 <ofw+0x558>
    7e34:	40 00 03 43 	call  8b40 <halt>
    7e38:	81 e8 00 00 	restore 
    7e3c:	11 00 00 24 	sethi  %hi(0x9000), %o0
    7e40:	7f ff fa f8 	call  6a20 <puts>
    7e44:	90 12 21 58 	or  %o0, 0x158, %o0	! 9158 <ofw+0x510>
    7e48:	40 00 03 3e 	call  8b40 <halt>
    7e4c:	01 00 00 00 	nop 
    7e50:	10 6f ff d8 	b  %xcc, 7db0 <ofw_init+0x150>
    7e54:	19 00 00 24 	sethi  %hi(0x9000), %o4
    7e58:	40 00 03 3a 	call  8b40 <halt>
    7e5c:	01 00 00 00 	nop 
    7e60:	10 6f ff 8e 	b  %xcc, 7c98 <ofw_init+0x38>
    7e64:	d8 04 21 5c 	ld  [ %l0 + 0x15c ], %o4
    7e68:	7f ff fa ee 	call  6a20 <puts>
    7e6c:	90 12 20 e0 	or  %o0, 0xe0, %o0
    7e70:	40 00 03 34 	call  8b40 <halt>
    7e74:	01 00 00 00 	nop 
    7e78:	10 6f ff b3 	b  %xcc, 7d44 <ofw_init+0xe4>
    7e7c:	d8 04 21 5c 	ld  [ %l0 + 0x15c ], %o4
    7e80:	7f ff fa e8 	call  6a20 <puts>
    7e84:	90 12 21 18 	or  %o0, 0x118, %o0
    7e88:	40 00 03 2e 	call  8b40 <halt>
    7e8c:	01 00 00 00 	nop 
    7e90:	10 6f ff bd 	b  %xcc, 7d84 <ofw_init+0x124>
    7e94:	19 00 00 24 	sethi  %hi(0x9000), %o4
    7e98:	01 00 00 00 	nop 
    7e9c:	01 00 00 00 	nop 

0000000000007ea0 <setup_palette>:
    7ea0:	9d e3 bb 10 	save  %sp, -1264, %sp
    7ea4:	03 00 00 26 	sethi  %hi(0x9800), %g1
    7ea8:	d8 00 61 58 	ld  [ %g1 + 0x158 ], %o4	! 9958 <ofw_aliases>
    7eac:	23 00 00 24 	sethi  %hi(0x9000), %l1
    7eb0:	1b 00 00 24 	sethi  %hi(0x9000), %o5
    7eb4:	82 10 24 00 	mov  0x400, %g1
    7eb8:	9a 13 61 d8 	or  %o5, 0x1d8, %o5
    7ebc:	a0 07 a3 e7 	add  %fp, 0x3e7, %l0
    7ec0:	90 14 60 60 	or  %l1, 0x60, %o0
    7ec4:	92 10 20 04 	mov  4, %o1
    7ec8:	94 10 20 01 	mov  1, %o2
    7ecc:	96 10 20 00 	clr  %o3
    7ed0:	c2 73 a8 b7 	stx  %g1, [ %sp + 0x8b7 ]
    7ed4:	7f ff fd d3 	call  7620 <ofw_call>
    7ed8:	e0 73 a8 af 	stx  %l0, [ %sp + 0x8af ]
    7edc:	80 a2 20 00 	cmp  %o0, 0
    7ee0:	04 40 00 1d 	ble,pn   %icc, 7f54 <setup_palette+0xb4>
    7ee4:	11 00 00 24 	sethi  %hi(0x9000), %o0
    7ee8:	98 10 00 10 	mov  %l0, %o4
    7eec:	90 12 20 88 	or  %o0, 0x88, %o0
    7ef0:	92 10 20 01 	mov  1, %o1
    7ef4:	94 10 20 01 	mov  1, %o2
    7ef8:	7f ff fd ca 	call  7620 <ofw_call>
    7efc:	96 10 20 00 	clr  %o3
    7f00:	80 a2 3f ff 	cmp  %o0, -1
    7f04:	02 40 00 14 	be,pn   %icc, 7f54 <setup_palette+0xb4>
    7f08:	98 10 00 08 	mov  %o0, %o4
    7f0c:	1b 00 00 24 	sethi  %hi(0x9000), %o5
    7f10:	82 07 a7 eb 	add  %fp, 0x7eb, %g1
    7f14:	84 10 20 04 	mov  4, %g2
    7f18:	90 14 60 60 	or  %l1, 0x60, %o0
    7f1c:	99 33 20 00 	srl  %o4, 0, %o4
    7f20:	9a 13 61 e0 	or  %o5, 0x1e0, %o5
    7f24:	92 10 20 04 	mov  4, %o1
    7f28:	94 10 20 01 	mov  1, %o2
    7f2c:	96 10 20 00 	clr  %o3
    7f30:	c2 73 a8 af 	stx  %g1, [ %sp + 0x8af ]
    7f34:	7f ff fd bb 	call  7620 <ofw_call>
    7f38:	c4 73 a8 b7 	stx  %g2, [ %sp + 0x8b7 ]
    7f3c:	80 a2 20 00 	cmp  %o0, 0
    7f40:	04 40 00 05 	ble,pn   %icc, 7f54 <setup_palette+0xb4>
    7f44:	c2 07 a7 eb 	ld  [ %fp + 0x7eb ], %g1
    7f48:	80 a0 60 08 	cmp  %g1, 8
    7f4c:	02 40 00 05 	be,pn   %icc, 7f60 <setup_palette+0xc0>
    7f50:	11 00 00 24 	sethi  %hi(0x9000), %o0
    7f54:	b0 10 20 00 	clr  %i0
    7f58:	81 cf e0 08 	rett  %i7 + 8
    7f5c:	91 3a 20 00 	sra  %o0, 0, %o0
    7f60:	90 12 21 e8 	or  %o0, 0x1e8, %o0
    7f64:	98 10 00 10 	mov  %l0, %o4
    7f68:	92 10 20 01 	mov  1, %o1
    7f6c:	94 10 20 01 	mov  1, %o2
    7f70:	7f ff fd ac 	call  7620 <ofw_call>
    7f74:	96 10 20 00 	clr  %o3
    7f78:	80 a2 3f ff 	cmp  %o0, -1
    7f7c:	02 47 ff f6 	be,pn   %icc, 7f54 <setup_palette+0xb4>
    7f80:	03 00 00 23 	sethi  %hi(0x8c00), %g1
    7f84:	05 00 00 24 	sethi  %hi(0x9000), %g2
    7f88:	a1 32 20 00 	srl  %o0, 0, %l0
    7f8c:	a6 10 63 58 	or  %g1, 0x358, %l3
    7f90:	a4 10 a1 f0 	or  %g2, 0x1f0, %l2
    7f94:	b0 10 20 00 	clr  %i0
    7f98:	a2 10 20 ff 	mov  0xff, %l1
    7f9c:	83 36 20 03 	srl  %i0, 3, %g1
    7fa0:	84 24 40 18 	sub  %l1, %i0, %g2
    7fa4:	87 2e 20 05 	sll  %i0, 5, %g3
    7fa8:	88 0e 3f e0 	and  %i0, -32, %g4
    7fac:	83 28 60 06 	sll  %g1, 6, %g1
    7fb0:	85 30 a0 00 	srl  %g2, 0, %g2
    7fb4:	87 30 e0 00 	srl  %g3, 0, %g3
    7fb8:	83 30 60 00 	srl  %g1, 0, %g1
    7fbc:	89 31 20 00 	srl  %g4, 0, %g4
    7fc0:	90 10 00 13 	mov  %l3, %o0
    7fc4:	92 10 20 06 	mov  6, %o1
    7fc8:	94 10 20 01 	mov  1, %o2
    7fcc:	96 10 20 00 	clr  %o3
    7fd0:	98 10 00 12 	mov  %l2, %o4
    7fd4:	9a 10 00 10 	mov  %l0, %o5
    7fd8:	c4 73 a8 af 	stx  %g2, [ %sp + 0x8af ]
    7fdc:	c6 73 a8 b7 	stx  %g3, [ %sp + 0x8b7 ]
    7fe0:	c2 73 a8 bf 	stx  %g1, [ %sp + 0x8bf ]
    7fe4:	7f ff fd 8f 	call  7620 <ofw_call>
    7fe8:	c8 73 a8 c7 	stx  %g4, [ %sp + 0x8c7 ]
    7fec:	b0 06 20 01 	inc  %i0
    7ff0:	80 a6 21 00 	cmp  %i0, 0x100
    7ff4:	12 4f ff eb 	bne  %icc, 7fa0 <setup_palette+0x100>
    7ff8:	83 36 20 03 	srl  %i0, 3, %g1
    7ffc:	10 6f ff d7 	b  %xcc, 7f58 <setup_palette+0xb8>
    8000:	b0 10 20 01 	mov  1, %i0
    8004:	30 68 00 07 	b,a   %xcc, 8020 <ofw_screen>
    8008:	01 00 00 00 	nop 
    800c:	01 00 00 00 	nop 
    8010:	01 00 00 00 	nop 
    8014:	01 00 00 00 	nop 
    8018:	01 00 00 00 	nop 
    801c:	01 00 00 00 	nop 

0000000000008020 <ofw_screen>:
    8020:	9d e3 bb 20 	save  %sp, -1248, %sp
    8024:	03 00 00 26 	sethi  %hi(0x9800), %g1
    8028:	d8 00 61 58 	ld  [ %g1 + 0x158 ], %o4	! 9958 <ofw_aliases>
    802c:	23 00 00 24 	sethi  %hi(0x9000), %l1
    8030:	1b 00 00 24 	sethi  %hi(0x9000), %o5
    8034:	82 10 24 00 	mov  0x400, %g1
    8038:	9a 13 61 d8 	or  %o5, 0x1d8, %o5
    803c:	a0 07 a3 e7 	add  %fp, 0x3e7, %l0
    8040:	90 14 60 60 	or  %l1, 0x60, %o0
    8044:	92 10 20 04 	mov  4, %o1
    8048:	94 10 20 01 	mov  1, %o2
    804c:	96 10 20 00 	clr  %o3
    8050:	c2 73 a8 b7 	stx  %g1, [ %sp + 0x8b7 ]
    8054:	7f ff fd 73 	call  7620 <ofw_call>
    8058:	e0 73 a8 af 	stx  %l0, [ %sp + 0x8af ]
    805c:	80 a2 20 00 	cmp  %o0, 0
    8060:	04 40 00 51 	ble,pn   %icc, 81a4 <ofw_screen+0x184>
    8064:	11 00 00 24 	sethi  %hi(0x9000), %o0
    8068:	90 12 20 88 	or  %o0, 0x88, %o0	! 9088 <ofw+0x440>
    806c:	98 10 00 10 	mov  %l0, %o4
    8070:	92 10 20 01 	mov  1, %o1
    8074:	94 10 20 01 	mov  1, %o2
    8078:	7f ff fd 6a 	call  7620 <ofw_call>
    807c:	96 10 20 00 	clr  %o3
    8080:	80 a2 3f ff 	cmp  %o0, -1
    8084:	02 40 00 48 	be,pn   %icc, 81a4 <ofw_screen+0x184>
    8088:	a1 32 20 00 	srl  %o0, 0, %l0
    808c:	1b 00 00 24 	sethi  %hi(0x9000), %o5
    8090:	82 07 a7 eb 	add  %fp, 0x7eb, %g1
    8094:	9a 13 61 f8 	or  %o5, 0x1f8, %o5
    8098:	a4 10 20 04 	mov  4, %l2
    809c:	90 14 60 60 	or  %l1, 0x60, %o0
    80a0:	92 10 20 04 	mov  4, %o1
    80a4:	94 10 20 01 	mov  1, %o2
    80a8:	96 10 20 00 	clr  %o3
    80ac:	98 10 00 10 	mov  %l0, %o4
    80b0:	c2 73 a8 af 	stx  %g1, [ %sp + 0x8af ]
    80b4:	7f ff fd 5b 	call  7620 <ofw_call>
    80b8:	e4 73 a8 b7 	stx  %l2, [ %sp + 0x8b7 ]
    80bc:	80 a2 20 00 	cmp  %o0, 0
    80c0:	04 40 00 39 	ble,pn   %icc, 81a4 <ofw_screen+0x184>
    80c4:	c2 07 a7 eb 	ld  [ %fp + 0x7eb ], %g1
    80c8:	1b 00 00 24 	sethi  %hi(0x9000), %o5
    80cc:	c2 76 00 00 	stx  %g1, [ %i0 ]
    80d0:	9a 13 62 00 	or  %o5, 0x200, %o5
    80d4:	82 06 20 08 	add  %i0, 8, %g1
    80d8:	90 14 60 60 	or  %l1, 0x60, %o0
    80dc:	92 10 20 04 	mov  4, %o1
    80e0:	94 10 20 01 	mov  1, %o2
    80e4:	96 10 20 00 	clr  %o3
    80e8:	98 10 00 10 	mov  %l0, %o4
    80ec:	c2 73 a8 af 	stx  %g1, [ %sp + 0x8af ]
    80f0:	7f ff fd 4c 	call  7620 <ofw_call>
    80f4:	e4 73 a8 b7 	stx  %l2, [ %sp + 0x8b7 ]
    80f8:	80 a2 20 00 	cmp  %o0, 0
    80fc:	04 40 00 2a 	ble,pn   %icc, 81a4 <ofw_screen+0x184>
    8100:	1b 00 00 24 	sethi  %hi(0x9000), %o5
    8104:	82 06 20 0c 	add  %i0, 0xc, %g1
    8108:	9a 13 62 08 	or  %o5, 0x208, %o5
    810c:	90 14 60 60 	or  %l1, 0x60, %o0
    8110:	92 10 20 04 	mov  4, %o1
    8114:	94 10 20 01 	mov  1, %o2
    8118:	96 10 20 00 	clr  %o3
    811c:	98 10 00 10 	mov  %l0, %o4
    8120:	c2 73 a8 af 	stx  %g1, [ %sp + 0x8af ]
    8124:	7f ff fd 3f 	call  7620 <ofw_call>
    8128:	e4 73 a8 b7 	stx  %l2, [ %sp + 0x8b7 ]
    812c:	80 a2 20 00 	cmp  %o0, 0
    8130:	04 40 00 1d 	ble,pn   %icc, 81a4 <ofw_screen+0x184>
    8134:	1b 00 00 24 	sethi  %hi(0x9000), %o5
    8138:	82 06 20 10 	add  %i0, 0x10, %g1
    813c:	9a 13 61 e0 	or  %o5, 0x1e0, %o5
    8140:	90 14 60 60 	or  %l1, 0x60, %o0
    8144:	92 10 20 04 	mov  4, %o1
    8148:	94 10 20 01 	mov  1, %o2
    814c:	96 10 20 00 	clr  %o3
    8150:	98 10 00 10 	mov  %l0, %o4
    8154:	c2 73 a8 af 	stx  %g1, [ %sp + 0x8af ]
    8158:	7f ff fd 32 	call  7620 <ofw_call>
    815c:	e4 73 a8 b7 	stx  %l2, [ %sp + 0x8b7 ]
    8160:	80 a2 20 00 	cmp  %o0, 0
    8164:	04 40 00 10 	ble,pn   %icc, 81a4 <ofw_screen+0x184>
    8168:	1b 00 00 24 	sethi  %hi(0x9000), %o5
    816c:	82 06 20 14 	add  %i0, 0x14, %g1
    8170:	90 14 60 60 	or  %l1, 0x60, %o0
    8174:	98 10 00 10 	mov  %l0, %o4
    8178:	9a 13 62 10 	or  %o5, 0x210, %o5
    817c:	92 10 20 04 	mov  4, %o1
    8180:	94 10 20 01 	mov  1, %o2
    8184:	96 10 20 00 	clr  %o3
    8188:	c2 73 a8 af 	stx  %g1, [ %sp + 0x8af ]
    818c:	7f ff fd 25 	call  7620 <ofw_call>
    8190:	e4 73 a8 b7 	stx  %l2, [ %sp + 0x8b7 ]
    8194:	b0 10 20 00 	clr  %i0
    8198:	91 3a 20 00 	sra  %o0, 0, %o0
    819c:	10 68 00 03 	b  %xcc, 81a8 <ofw_screen+0x188>
    81a0:	b1 7a 38 01 	movrgz  %o0, 1, %i0
    81a4:	b0 10 20 00 	clr  %i0
    81a8:	81 cf e0 08 	rett  %i7 + 8
    81ac:	91 3a 20 00 	sra  %o0, 0, %o0
    81b0:	30 68 00 04 	b,a   %xcc, 81c0 <ofw_memmap>
    81b4:	01 00 00 00 	nop 
    81b8:	01 00 00 00 	nop 
    81bc:	01 00 00 00 	nop 

00000000000081c0 <ofw_memmap>:
    81c0:	9d e3 bf 20 	save  %sp, -224, %sp
    81c4:	27 00 00 26 	sethi  %hi(0x9800), %l3
    81c8:	d8 04 e1 68 	ld  [ %l3 + 0x168 ], %o4	! 9968 <ofw_memory>
    81cc:	25 00 00 24 	sethi  %hi(0x9000), %l2
    81d0:	23 00 00 24 	sethi  %hi(0x9000), %l1
    81d4:	82 10 20 01 	mov  1, %g1
    81d8:	99 33 20 00 	srl  %o4, 0, %o4
    81dc:	a0 07 a7 eb 	add  %fp, 0x7eb, %l0
    81e0:	a8 10 20 04 	mov  4, %l4
    81e4:	90 14 a0 60 	or  %l2, 0x60, %o0
    81e8:	92 10 20 04 	mov  4, %o1
    81ec:	94 10 20 01 	mov  1, %o2
    81f0:	96 10 20 00 	clr  %o3
    81f4:	9a 14 60 78 	or  %l1, 0x78, %o5
    81f8:	c2 27 a7 eb 	st  %g1, [ %fp + 0x7eb ]
    81fc:	e0 73 a8 af 	stx  %l0, [ %sp + 0x8af ]
    8200:	7f ff fd 08 	call  7620 <ofw_call>
    8204:	e8 73 a8 b7 	stx  %l4, [ %sp + 0x8b7 ]
    8208:	80 a2 20 00 	cmp  %o0, 0
    820c:	04 40 00 62 	ble,pn   %icc, 8394 <ofw_memmap+0x1d4>
    8210:	03 00 00 26 	sethi  %hi(0x9800), %g1
    8214:	c2 07 a7 eb 	ld  [ %fp + 0x7eb ], %g1
    8218:	d8 04 e1 68 	ld  [ %l3 + 0x168 ], %o4
    821c:	23 00 00 24 	sethi  %hi(0x9000), %l1
    8220:	aa 10 20 04 	mov  4, %l5
    8224:	90 14 a0 60 	or  %l2, 0x60, %o0
    8228:	92 10 20 04 	mov  4, %o1
    822c:	94 10 20 01 	mov  1, %o2
    8230:	96 10 20 00 	clr  %o3
    8234:	9a 14 60 68 	or  %l1, 0x68, %o5
    8238:	a9 30 60 01 	srl  %g1, 1, %l4
    823c:	e0 73 a8 af 	stx  %l0, [ %sp + 0x8af ]
    8240:	7f ff fc f8 	call  7620 <ofw_call>
    8244:	ea 73 a8 b7 	stx  %l5, [ %sp + 0x8b7 ]
    8248:	80 a2 20 00 	cmp  %o0, 0
    824c:	04 40 00 61 	ble,pn   %icc, 83d0 <ofw_memmap+0x210>
    8250:	03 00 00 26 	sethi  %hi(0x9800), %g1
    8254:	c2 07 a7 eb 	ld  [ %fp + 0x7eb ], %g1
    8258:	83 30 60 01 	srl  %g1, 1, %g1
    825c:	a0 00 40 14 	add  %g1, %l4, %l0
    8260:	85 2c 20 05 	sll  %l0, 5, %g2
    8264:	85 30 a0 00 	srl  %g2, 0, %g2
    8268:	85 28 b0 03 	sllx  %g2, 3, %g2
    826c:	9c 23 80 02 	sub  %sp, %g2, %sp
    8270:	d8 04 e1 68 	ld  [ %l3 + 0x168 ], %o4
    8274:	82 03 a8 ce 	add  %sp, 0x8ce, %g1
    8278:	1b 00 00 24 	sethi  %hi(0x9000), %o5
    827c:	85 38 a0 00 	sra  %g2, 0, %g2
    8280:	a2 08 7f f0 	and  %g1, -16, %l1
    8284:	90 14 a0 60 	or  %l2, 0x60, %o0
    8288:	9a 13 62 20 	or  %o5, 0x220, %o5
    828c:	92 10 20 04 	mov  4, %o1
    8290:	94 10 20 01 	mov  1, %o2
    8294:	96 10 20 00 	clr  %o3
    8298:	c4 73 a8 b7 	stx  %g2, [ %sp + 0x8b7 ]
    829c:	7f ff fc e1 	call  7620 <ofw_call>
    82a0:	e2 73 a8 af 	stx  %l1, [ %sp + 0x8af ]
    82a4:	80 a2 20 00 	cmp  %o0, 0
    82a8:	04 40 00 39 	ble,pn   %icc, 838c <ofw_memmap+0x1cc>
    82ac:	84 10 20 00 	clr  %g2
    82b0:	83 3a 20 00 	sra  %o0, 0, %g1
    82b4:	91 30 70 03 	srlx  %g1, 3, %o0
    82b8:	02 c2 00 34 	brz,pn   %o0, 8388 <ofw_memmap+0x1c8>
    82bc:	c0 76 00 00 	clrx  [ %i0 ]
    82c0:	98 05 3f ff 	add  %l4, -1, %o4
    82c4:	9a 04 3f ff 	add  %l0, -1, %o5
    82c8:	8a 10 20 00 	clr  %g5
    82cc:	88 10 20 00 	clr  %g4
    82d0:	82 01 3f ff 	add  %g4, -1, %g1
    82d4:	83 30 60 00 	srl  %g1, 0, %g1
    82d8:	83 28 70 04 	sllx  %g1, 4, %g1
    82dc:	87 31 20 00 	srl  %g4, 0, %g3
    82e0:	96 06 00 01 	add  %i0, %g1, %o3
    82e4:	83 33 60 00 	srl  %o5, 0, %g1
    82e8:	87 28 f0 04 	sllx  %g3, 4, %g3
    82ec:	83 28 70 03 	sllx  %g1, 3, %g1
    82f0:	92 06 00 03 	add  %i0, %g3, %o1
    82f4:	c6 5c 40 01 	ldx  [ %l1 + %g1 ], %g3
    82f8:	85 33 20 00 	srl  %o4, 0, %g2
    82fc:	8a 01 40 10 	add  %g5, %l0, %g5
    8300:	80 a1 20 00 	cmp  %g4, 0
    8304:	85 28 b0 03 	sllx  %g2, 3, %g2
    8308:	98 03 00 10 	add  %o4, %l0, %o4
    830c:	9a 03 40 10 	add  %o5, %l0, %o5
    8310:	9f 39 60 00 	sra  %g5, 0, %o7
    8314:	d4 5c 40 02 	ldx  [ %l1 + %g2 ], %o2
    8318:	02 48 00 08 	be  %icc, 8338 <ofw_memmap+0x178>
    831c:	88 10 00 03 	mov  %g3, %g4
    8320:	c2 5a e0 08 	ldx  [ %o3 + 8 ], %g1
    8324:	c4 02 e0 10 	ld  [ %o3 + 0x10 ], %g2
    8328:	82 00 40 02 	add  %g1, %g2, %g1
    832c:	80 a2 80 01 	cmp  %o2, %g1
    8330:	18 60 00 17 	bgu,pn   %xcc, 838c <ofw_memmap+0x1cc>
    8334:	84 10 20 01 	mov  1, %g2
    8338:	80 a1 20 00 	cmp  %g4, 0
    833c:	02 48 00 0d 	be  %icc, 8370 <ofw_memmap+0x1b0>
    8340:	80 a3 c0 08 	cmp  %o7, %o0
    8344:	c2 06 20 04 	ld  [ %i0 + 4 ], %g1
    8348:	83 28 70 04 	sllx  %g1, 4, %g1
    834c:	82 06 00 01 	add  %i0, %g1, %g1
    8350:	c6 20 60 10 	st  %g3, [ %g1 + 0x10 ]
    8354:	c4 06 20 04 	ld  [ %i0 + 4 ], %g2
    8358:	c2 06 00 00 	ld  [ %i0 ], %g1
    835c:	84 00 a0 01 	inc  %g2
    8360:	82 00 40 04 	add  %g1, %g4, %g1
    8364:	d4 72 60 08 	stx  %o2, [ %o1 + 8 ]
    8368:	c4 26 20 04 	st  %g2, [ %i0 + 4 ]
    836c:	c2 26 00 00 	st  %g1, [ %i0 ]
    8370:	1a 60 00 07 	bcc,pn   %xcc, 838c <ofw_memmap+0x1cc>
    8374:	84 10 20 01 	mov  1, %g2
    8378:	c8 06 20 04 	ld  [ %i0 + 4 ], %g4
    837c:	80 a1 20 1f 	cmp  %g4, 0x1f
    8380:	08 4f ff d5 	bleu  %icc, 82d4 <ofw_memmap+0x114>
    8384:	82 01 3f ff 	add  %g4, -1, %g1
    8388:	84 10 20 01 	mov  1, %g2
    838c:	81 cf e0 08 	rett  %i7 + 8
    8390:	91 38 a0 00 	sra  %g2, 0, %o0
    8394:	d8 00 61 6c 	ld  [ %g1 + 0x16c ], %o4
    8398:	9a 14 60 78 	or  %l1, 0x78, %o5
    839c:	90 14 a0 60 	or  %l2, 0x60, %o0
    83a0:	92 10 20 04 	mov  4, %o1
    83a4:	94 10 20 01 	mov  1, %o2
    83a8:	96 10 20 00 	clr  %o3
    83ac:	e8 73 a8 b7 	stx  %l4, [ %sp + 0x8b7 ]
    83b0:	7f ff fc 9c 	call  7620 <ofw_call>
    83b4:	e0 73 a8 af 	stx  %l0, [ %sp + 0x8af ]
    83b8:	80 a2 20 00 	cmp  %o0, 0
    83bc:	14 4f ff 97 	bg  %icc, 8218 <ofw_memmap+0x58>
    83c0:	c2 07 a7 eb 	ld  [ %fp + 0x7eb ], %g1
    83c4:	82 10 20 02 	mov  2, %g1
    83c8:	10 6f ff 93 	b  %xcc, 8214 <ofw_memmap+0x54>
    83cc:	c2 27 a7 eb 	st  %g1, [ %fp + 0x7eb ]
    83d0:	d8 00 61 6c 	ld  [ %g1 + 0x16c ], %o4
    83d4:	11 00 00 24 	sethi  %hi(0x9000), %o0
    83d8:	90 12 20 60 	or  %o0, 0x60, %o0	! 9060 <ofw+0x418>
    83dc:	9a 14 60 68 	or  %l1, 0x68, %o5
    83e0:	92 10 20 04 	mov  4, %o1
    83e4:	94 10 20 01 	mov  1, %o2
    83e8:	96 10 20 00 	clr  %o3
    83ec:	e0 73 a8 af 	stx  %l0, [ %sp + 0x8af ]
    83f0:	7f ff fc 8c 	call  7620 <ofw_call>
    83f4:	ea 73 a8 b7 	stx  %l5, [ %sp + 0x8b7 ]
    83f8:	80 a2 20 00 	cmp  %o0, 0
    83fc:	14 4f ff 97 	bg  %icc, 8258 <ofw_memmap+0x98>
    8400:	c2 07 a7 eb 	ld  [ %fp + 0x7eb ], %g1
    8404:	82 10 20 02 	mov  2, %g1
    8408:	10 6f ff 93 	b  %xcc, 8254 <ofw_memmap+0x94>
    840c:	c2 27 a7 eb 	st  %g1, [ %fp + 0x7eb ]
    8410:	30 68 00 04 	b,a   %xcc, 8420 <ofw_tree_node_process>
    8414:	01 00 00 00 	nop 
    8418:	01 00 00 00 	nop 
    841c:	01 00 00 00 	nop 

0000000000008420 <ofw_tree_node_process>:
    8420:	9d e3 bf 40 	save  %sp, -192, %sp
    8424:	02 c6 00 9b 	brz,pn   %i0, 8690 <ofw_tree_node_process+0x270>
    8428:	03 00 00 24 	sethi  %hi(0x9000), %g1
    842c:	ae 10 62 f8 	or  %g1, 0x2f8, %l7	! 92f8 <path.963>
    8430:	05 00 00 24 	sethi  %hi(0x9000), %g2
    8434:	94 10 21 00 	mov  0x100, %o2
    8438:	f2 76 00 00 	stx  %i1, [ %i0 ]
    843c:	c0 76 20 08 	clrx  [ %i0 + 8 ]
    8440:	c0 76 20 10 	clrx  [ %i0 + 0x10 ]
    8444:	f4 26 20 18 	st  %i2, [ %i0 + 0x18 ]
    8448:	c0 26 20 28 	clr  [ %i0 + 0x28 ]
    844c:	c0 76 20 30 	clrx  [ %i0 + 0x30 ]
    8450:	c0 76 20 38 	clrx  [ %i0 + 0x38 ]
    8454:	90 10 00 1a 	mov  %i2, %o0
    8458:	92 10 00 17 	mov  %l7, %o1
    845c:	7f ff fd 61 	call  79e0 <ofw_package_to_path>
    8460:	a6 10 a2 d8 	or  %g2, 0x2d8, %l3
    8464:	95 3a 20 00 	sra  %o0, 0, %o2
    8468:	80 a2 bf ff 	cmp  %o2, -1
    846c:	aa 10 00 17 	mov  %l7, %l5
    8470:	ba 10 00 17 	mov  %l7, %i5
    8474:	a8 10 00 13 	mov  %l3, %l4
    8478:	02 60 00 86 	be,pn   %xcc, 8690 <ofw_tree_node_process+0x270>
    847c:	ac 10 00 13 	mov  %l3, %l6
    8480:	86 82 bf ff 	addcc  %o2, -1, %g3
    8484:	0c 40 00 12 	bneg,pn   %icc, 84cc <ofw_tree_node_process+0xac>
    8488:	c0 2d 40 0a 	clrb  [ %l5 + %o2 ]
    848c:	83 38 e0 00 	sra  %g3, 0, %g1
    8490:	c4 4f 40 01 	ldsb  [ %i5 + %g1 ], %g2
    8494:	80 a0 a0 2f 	cmp  %g2, 0x2f
    8498:	02 40 00 0d 	be,pn   %icc, 84cc <ofw_tree_node_process+0xac>
    849c:	90 02 3f fe 	add  %o0, -2, %o0
    84a0:	10 68 00 07 	b  %xcc, 84bc <ofw_tree_node_process+0x9c>
    84a4:	80 a2 20 00 	cmp  %o0, 0
    84a8:	c2 4d 40 01 	ldsb  [ %l5 + %g1 ], %g1
    84ac:	80 a0 60 2f 	cmp  %g1, 0x2f
    84b0:	02 40 00 08 	be,pn   %icc, 84d0 <ofw_tree_node_process+0xb0>
    84b4:	82 00 e0 01 	add  %g3, 1, %g1
    84b8:	80 a2 20 00 	cmp  %o0, 0
    84bc:	86 10 00 08 	mov  %o0, %g3
    84c0:	83 3a 20 00 	sra  %o0, 0, %g1
    84c4:	16 4f ff f9 	bge  %icc, 84a8 <ofw_tree_node_process+0x88>
    84c8:	90 02 3f ff 	add  %o0, -1, %o0
    84cc:	82 00 e0 01 	add  %g3, 1, %g1
    84d0:	a5 38 60 00 	sra  %g1, 0, %l2
    84d4:	a0 22 80 12 	sub  %o2, %l2, %l0
    84d8:	a2 04 20 01 	add  %l0, 1, %l1
    84dc:	90 04 20 02 	add  %l0, 2, %o0
    84e0:	7f ff fc 38 	call  75c0 <balloc>
    84e4:	92 10 00 11 	mov  %l1, %o1
    84e8:	02 c2 00 8d 	brz,pn   %o0, 871c <ofw_tree_node_process+0x2fc>
    84ec:	94 10 00 10 	mov  %l0, %o2
    84f0:	c0 2a 00 11 	clrb  [ %o0 + %l1 ]
    84f4:	92 05 40 12 	add  %l5, %l2, %o1
    84f8:	40 00 01 94 	call  8b48 <memcpy>
    84fc:	d0 76 20 20 	stx  %o0, [ %i0 + 0x20 ]
    8500:	c2 5e 20 20 	ldx  [ %i0 + 0x20 ], %g1
    8504:	90 10 00 1a 	mov  %i2, %o0
    8508:	7f ff fd 26 	call  79a0 <ofw_get_child_node>
    850c:	c0 28 40 10 	clrb  [ %g1 + %l0 ]
    8510:	82 02 3f ff 	add  %o0, -1, %g1
    8514:	80 a0 7f fd 	cmp  %g1, -3
    8518:	08 40 00 60 	bleu,pn   %icc, 8698 <ofw_tree_node_process+0x278>
    851c:	a0 10 00 08 	mov  %o0, %l0
    8520:	10 68 00 04 	b  %xcc, 8530 <ofw_tree_node_process+0x110>
    8524:	c0 2c c0 00 	clrb  [ %l3 ]
    8528:	82 00 60 01 	inc  %g1
    852c:	c2 26 20 28 	st  %g1, [ %i0 + 0x28 ]
    8530:	90 10 00 1a 	mov  %i2, %o0
    8534:	92 10 00 14 	mov  %l4, %o1
    8538:	7f ff fd 3a 	call  7a20 <ofw_next_property>
    853c:	94 10 00 14 	mov  %l4, %o2
    8540:	80 a2 20 01 	cmp  %o0, 1
    8544:	02 4f ff f9 	be  %icc, 8528 <ofw_tree_node_process+0x108>
    8548:	c2 06 20 28 	ld  [ %i0 + 0x28 ], %g1
    854c:	80 a0 60 00 	cmp  %g1, 0
    8550:	02 40 00 50 	be,pn   %icc, 8690 <ofw_tree_node_process+0x270>
    8554:	90 50 60 30 	umul  %g1, 0x30, %o0
    8558:	7f ff fc 1a 	call  75c0 <balloc>
    855c:	92 10 20 30 	mov  0x30, %o1
    8560:	02 c2 00 4c 	brz,pn   %o0, 8690 <ofw_tree_node_process+0x270>
    8564:	d0 76 20 30 	stx  %o0, [ %i0 + 0x30 ]
    8568:	92 10 00 14 	mov  %l4, %o1
    856c:	94 10 00 14 	mov  %l4, %o2
    8570:	90 10 00 1a 	mov  %i2, %o0
    8574:	7f ff fd 2b 	call  7a20 <ofw_next_property>
    8578:	c0 2c c0 00 	clrb  [ %l3 ]
    857c:	80 a2 20 01 	cmp  %o0, 1
    8580:	a4 10 20 00 	clr  %l2
    8584:	a2 10 20 00 	clr  %l1
    8588:	92 10 00 16 	mov  %l6, %o1
    858c:	12 40 00 24 	bne,pn   %icc, 861c <ofw_tree_node_process+0x1fc>
    8590:	90 10 00 1a 	mov  %i2, %o0
    8594:	c2 06 20 28 	ld  [ %i0 + 0x28 ], %g1
    8598:	80 a0 40 12 	cmp  %g1, %l2
    859c:	22 40 00 21 	be,a,pn   %icc, 8620 <ofw_tree_node_process+0x200>
    85a0:	90 10 00 1a 	mov  %i2, %o0
    85a4:	c6 5e 20 30 	ldx  [ %i0 + 0x30 ], %g3
    85a8:	c2 5c c0 00 	ldx  [ %l3 ], %g1
    85ac:	c2 70 c0 11 	stx  %g1, [ %g3 + %l1 ]
    85b0:	c4 5c e0 08 	ldx  [ %l3 + 8 ], %g2
    85b4:	86 00 c0 11 	add  %g3, %l1, %g3
    85b8:	c4 70 e0 08 	stx  %g2, [ %g3 + 8 ]
    85bc:	c2 5c e0 10 	ldx  [ %l3 + 0x10 ], %g1
    85c0:	c2 70 e0 10 	stx  %g1, [ %g3 + 0x10 ]
    85c4:	c4 5c e0 18 	ldx  [ %l3 + 0x18 ], %g2
    85c8:	c4 70 e0 18 	stx  %g2, [ %g3 + 0x18 ]
    85cc:	c2 5e 20 30 	ldx  [ %i0 + 0x30 ], %g1
    85d0:	82 00 40 11 	add  %g1, %l1, %g1
    85d4:	7f ff fd 23 	call  7a60 <ofw_get_proplen>
    85d8:	c0 28 60 20 	clrb  [ %g1 + 0x20 ]
    85dc:	c2 5e 20 30 	ldx  [ %i0 + 0x30 ], %g1
    85e0:	a1 3a 20 00 	sra  %o0, 0, %l0
    85e4:	82 00 40 11 	add  %g1, %l1, %g1
    85e8:	0a c4 00 36 	brnz,pn   %l0, 86c0 <ofw_tree_node_process+0x2a0>
    85ec:	e0 70 60 20 	stx  %l0, [ %g1 + 0x20 ]
    85f0:	c0 70 60 28 	clrx  [ %g1 + 0x28 ]
    85f4:	a4 04 a0 01 	inc  %l2
    85f8:	a2 04 60 30 	add  %l1, 0x30, %l1
    85fc:	92 10 00 14 	mov  %l4, %o1
    8600:	94 10 00 14 	mov  %l4, %o2
    8604:	7f ff fd 07 	call  7a20 <ofw_next_property>
    8608:	90 10 00 1a 	mov  %i2, %o0
    860c:	80 a2 20 01 	cmp  %o0, 1
    8610:	92 10 00 16 	mov  %l6, %o1
    8614:	02 4f ff e0 	be  %icc, 8594 <ofw_tree_node_process+0x174>
    8618:	90 10 00 1a 	mov  %i2, %o0
    861c:	90 10 00 1a 	mov  %i2, %o0
    8620:	7f ff fc d0 	call  7960 <ofw_get_peer_node>
    8624:	e4 26 20 28 	st  %l2, [ %i0 + 0x28 ]
    8628:	82 02 3f ff 	add  %o0, -1, %g1
    862c:	80 a0 7f fd 	cmp  %g1, -3
    8630:	18 40 00 18 	bgu,pn   %icc, 8690 <ofw_tree_node_process+0x270>
    8634:	b4 10 00 08 	mov  %o0, %i2
    8638:	90 10 20 40 	mov  0x40, %o0
    863c:	7f ff fb e1 	call  75c0 <balloc>
    8640:	92 10 20 40 	mov  0x40, %o1
    8644:	02 c2 00 13 	brz,pn   %o0, 8690 <ofw_tree_node_process+0x270>
    8648:	b5 36 a0 00 	srl  %i2, 0, %i2
    864c:	d0 76 20 08 	stx  %o0, [ %i0 + 8 ]
    8650:	b0 10 00 08 	mov  %o0, %i0
    8654:	94 10 21 00 	mov  0x100, %o2
    8658:	f2 76 00 00 	stx  %i1, [ %i0 ]
    865c:	c0 76 20 08 	clrx  [ %i0 + 8 ]
    8660:	c0 76 20 10 	clrx  [ %i0 + 0x10 ]
    8664:	f4 26 20 18 	st  %i2, [ %i0 + 0x18 ]
    8668:	c0 26 20 28 	clr  [ %i0 + 0x28 ]
    866c:	c0 76 20 30 	clrx  [ %i0 + 0x30 ]
    8670:	c0 76 20 38 	clrx  [ %i0 + 0x38 ]
    8674:	90 10 00 1a 	mov  %i2, %o0
    8678:	7f ff fc da 	call  79e0 <ofw_package_to_path>
    867c:	92 10 00 17 	mov  %l7, %o1
    8680:	95 3a 20 00 	sra  %o0, 0, %o2
    8684:	80 a2 bf ff 	cmp  %o2, -1
    8688:	12 6f ff 7f 	bne  %xcc, 8484 <ofw_tree_node_process+0x64>
    868c:	86 82 bf ff 	addcc  %o2, -1, %g3
    8690:	81 cf e0 08 	rett  %i7 + 8
    8694:	01 00 00 00 	nop 
    8698:	90 10 20 40 	mov  0x40, %o0	! 40 <start-0x3fc0>
    869c:	7f ff fb c9 	call  75c0 <balloc>
    86a0:	92 10 20 40 	mov  0x40, %o1
    86a4:	02 f2 3f 9f 	brz,pn   %o0, 8520 <ofw_tree_node_process+0x100>
    86a8:	a2 10 00 08 	mov  %o0, %l1
    86ac:	95 34 20 00 	srl  %l0, 0, %o2
    86b0:	7f ff ff 5c 	call  8420 <ofw_tree_node_process>
    86b4:	92 10 00 18 	mov  %i0, %o1
    86b8:	10 6f ff 9a 	b  %xcc, 8520 <ofw_tree_node_process+0x100>
    86bc:	e2 76 20 10 	stx  %l1, [ %i0 + 0x10 ]
    86c0:	92 10 00 10 	mov  %l0, %o1
    86c4:	7f ff fb bf 	call  75c0 <balloc>
    86c8:	90 04 20 01 	add  %l0, 1, %o0
    86cc:	84 10 00 08 	mov  %o0, %g2
    86d0:	94 10 00 08 	mov  %o0, %o2
    86d4:	96 10 00 10 	mov  %l0, %o3
    86d8:	90 10 00 1a 	mov  %i2, %o0
    86dc:	02 c0 80 0a 	brz,pn   %g2, 8704 <ofw_tree_node_process+0x2e4>
    86e0:	92 10 00 14 	mov  %l4, %o1
    86e4:	c0 28 80 10 	clrb  [ %g2 + %l0 ]
    86e8:	c2 5e 20 30 	ldx  [ %i0 + 0x30 ], %g1
    86ec:	82 00 40 11 	add  %g1, %l1, %g1
    86f0:	7f ff fc ec 	call  7aa0 <ofw_get_property>
    86f4:	c4 70 60 28 	stx  %g2, [ %g1 + 0x28 ]
    86f8:	a4 04 a0 01 	inc  %l2
    86fc:	10 6f ff c0 	b  %xcc, 85fc <ofw_tree_node_process+0x1dc>
    8700:	a2 04 60 30 	add  %l1, 0x30, %l1
    8704:	c2 5e 20 30 	ldx  [ %i0 + 0x30 ], %g1
    8708:	82 00 40 11 	add  %g1, %l1, %g1
    870c:	c0 70 60 28 	clrx  [ %g1 + 0x28 ]
    8710:	a4 04 a0 01 	inc  %l2
    8714:	10 6f ff ba 	b  %xcc, 85fc <ofw_tree_node_process+0x1dc>
    8718:	a2 04 60 30 	add  %l1, 0x30, %l1
    871c:	c0 76 20 20 	clrx  [ %i0 + 0x20 ]
    8720:	81 cf e0 08 	rett  %i7 + 8
    8724:	01 00 00 00 	nop 
    8728:	30 68 00 06 	b,a   %xcc, 8740 <ofw_tree_build>
    872c:	01 00 00 00 	nop 
    8730:	01 00 00 00 	nop 
    8734:	01 00 00 00 	nop 
    8738:	01 00 00 00 	nop 
    873c:	01 00 00 00 	nop 

0000000000008740 <ofw_tree_build>:
    8740:	9d e3 bf 40 	save  %sp, -192, %sp
    8744:	90 10 20 40 	mov  0x40, %o0
    8748:	7f ff fb 9e 	call  75c0 <balloc>
    874c:	92 10 20 40 	mov  0x40, %o1
    8750:	02 c2 00 06 	brz,pn   %o0, 8768 <ofw_tree_build+0x28>
    8754:	b0 10 00 08 	mov  %o0, %i0
    8758:	03 00 00 26 	sethi  %hi(0x9800), %g1
    875c:	d4 00 61 6c 	ld  [ %g1 + 0x16c ], %o2	! 996c <ofw_root>
    8760:	7f ff ff 30 	call  8420 <ofw_tree_node_process>
    8764:	92 10 20 00 	clr  %o1
    8768:	23 00 00 24 	sethi  %hi(0x9000), %l1
    876c:	7f ff fd 2d 	call  7c20 <ofw_find_device>
    8770:	90 14 62 28 	or  %l1, 0x228, %o0	! 9228 <ofw+0x5e0>
    8774:	80 a2 3f ff 	cmp  %o0, -1
    8778:	02 40 00 0f 	be,pn   %icc, 87b4 <ofw_tree_build+0x74>
    877c:	90 10 20 40 	mov  0x40, %o0
    8780:	7f ff fb 90 	call  75c0 <balloc>
    8784:	92 10 20 40 	mov  0x40, %o1
    8788:	02 c2 00 0b 	brz,pn   %o0, 87b4 <ofw_tree_build+0x74>
    878c:	a0 10 00 08 	mov  %o0, %l0
    8790:	7f ff fd 24 	call  7c20 <ofw_find_device>
    8794:	90 14 62 28 	or  %l1, 0x228, %o0
    8798:	92 10 00 18 	mov  %i0, %o1
    879c:	95 32 20 00 	srl  %o0, 0, %o2
    87a0:	7f ff ff 20 	call  8420 <ofw_tree_node_process>
    87a4:	90 10 00 10 	mov  %l0, %o0
    87a8:	c2 5e 20 10 	ldx  [ %i0 + 0x10 ], %g1
    87ac:	e0 76 20 10 	stx  %l0, [ %i0 + 0x10 ]
    87b0:	c2 74 20 08 	stx  %g1, [ %l0 + 8 ]
    87b4:	81 cf e0 08 	rett  %i7 + 8
    87b8:	01 00 00 00 	nop 
    87bc:	01 00 00 00 	nop 

00000000000087c0 <ofw_translate_failed>:
    87c0:	82 38 00 08 	xnor  %g0, %o0, %g1
    87c4:	90 10 20 00 	clr  %o0
    87c8:	81 c3 e0 08 	retl 
    87cc:	91 78 74 01 	movrne  %g1, 1, %o0
    87d0:	30 68 00 04 	b,a   %xcc, 87e0 <ofw_get_physmem_start>
    87d4:	01 00 00 00 	nop 
    87d8:	01 00 00 00 	nop 
    87dc:	01 00 00 00 	nop 

00000000000087e0 <ofw_get_physmem_start>:
    87e0:	9d e3 bf 30 	save  %sp, -208, %sp
    87e4:	03 00 00 26 	sethi  %hi(0x9800), %g1
    87e8:	d0 00 61 68 	ld  [ %g1 + 0x168 ], %o0	! 9968 <ofw_memory>
    87ec:	13 00 00 24 	sethi  %hi(0x9000), %o1
    87f0:	92 12 62 20 	or  %o1, 0x220, %o1	! 9220 <ofw+0x5d8>
    87f4:	94 07 a7 df 	add  %fp, 0x7df, %o2
    87f8:	7f ff fc aa 	call  7aa0 <ofw_get_property>
    87fc:	96 10 20 10 	mov  0x10, %o3
    8800:	80 a2 20 00 	cmp  %o0, 0
    8804:	84 10 00 18 	mov  %i0, %g2
    8808:	04 40 00 05 	ble,pn   %icc, 881c <ofw_get_physmem_start+0x3c>
    880c:	b0 10 20 00 	clr  %i0
    8810:	c2 07 a7 df 	ld  [ %fp + 0x7df ], %g1
    8814:	b0 10 20 01 	mov  1, %i0
    8818:	c2 70 80 00 	stx  %g1, [ %g2 ]
    881c:	81 cf e0 08 	rett  %i7 + 8
    8820:	91 3a 20 00 	sra  %o0, 0, %o0
    8824:	30 68 00 07 	b,a   %xcc, 8840 <wake_cpus_in_node>
    8828:	01 00 00 00 	nop 
    882c:	01 00 00 00 	nop 
    8830:	01 00 00 00 	nop 
    8834:	01 00 00 00 	nop 
    8838:	01 00 00 00 	nop 
    883c:	01 00 00 00 	nop 

0000000000008840 <wake_cpus_in_node>:
    8840:	9d e3 bb 20 	save  %sp, -1248, %sp
    8844:	82 06 3f ff 	add  %i0, -1, %g1
    8848:	80 a0 7f fd 	cmp  %g1, -3
    884c:	a0 10 20 00 	clr  %l0
    8850:	18 40 00 40 	bgu,pn   %icc, 8950 <wake_cpus_in_node+0x110>
    8854:	a2 07 a3 e7 	add  %fp, 0x3e7, %l1
    8858:	03 00 00 24 	sethi  %hi(0x9000), %g1
    885c:	05 00 00 24 	sethi  %hi(0x9000), %g2
    8860:	a6 10 62 38 	or  %g1, 0x238, %l3
    8864:	03 00 00 24 	sethi  %hi(0x9000), %g1
    8868:	a4 10 a2 48 	or  %g2, 0x248, %l2
    886c:	ac 10 62 50 	or  %g1, 0x250, %l6
    8870:	05 00 00 25 	sethi  %hi(0x9400), %g2
    8874:	03 00 00 24 	sethi  %hi(0x9000), %g1
    8878:	ae 10 a1 20 	or  %g2, 0x120, %l7
    887c:	aa 10 62 70 	or  %g1, 0x270, %l5
    8880:	05 00 00 24 	sethi  %hi(0x9000), %g2
    8884:	03 00 00 24 	sethi  %hi(0x9000), %g1
    8888:	ba 10 a2 60 	or  %g2, 0x260, %i5
    888c:	b8 10 62 68 	or  %g1, 0x268, %i4
    8890:	10 68 00 08 	b  %xcc, 88b0 <wake_cpus_in_node+0x70>
    8894:	a8 07 a7 eb 	add  %fp, 0x7eb, %l4
    8898:	7f ff fc 32 	call  7960 <ofw_get_peer_node>
    889c:	90 10 00 18 	mov  %i0, %o0
    88a0:	82 02 3f ff 	add  %o0, -1, %g1
    88a4:	80 a0 7f fd 	cmp  %g1, -3
    88a8:	18 40 00 2a 	bgu,pn   %icc, 8950 <wake_cpus_in_node+0x110>
    88ac:	b0 10 00 08 	mov  %o0, %i0
    88b0:	92 10 00 13 	mov  %l3, %o1
    88b4:	94 10 00 11 	mov  %l1, %o2
    88b8:	96 10 24 00 	mov  0x400, %o3
    88bc:	7f ff fc 79 	call  7aa0 <ofw_get_property>
    88c0:	90 10 00 18 	mov  %i0, %o0
    88c4:	80 a2 20 00 	cmp  %o0, 0
    88c8:	92 10 00 12 	mov  %l2, %o1
    88cc:	a0 04 20 01 	inc  %l0
    88d0:	04 47 ff f2 	ble,pn   %icc, 8898 <wake_cpus_in_node+0x58>
    88d4:	90 10 00 11 	mov  %l1, %o0
    88d8:	7f ff f9 d2 	call  7020 <strcmp>
    88dc:	01 00 00 00 	nop 
    88e0:	80 a2 20 00 	cmp  %o0, 0
    88e4:	12 4f ff ed 	bne  %icc, 8898 <wake_cpus_in_node+0x58>
    88e8:	92 10 00 16 	mov  %l6, %o1
    88ec:	94 10 00 14 	mov  %l4, %o2
    88f0:	96 10 20 04 	mov  4, %o3
    88f4:	7f ff fc 6b 	call  7aa0 <ofw_get_property>
    88f8:	90 10 00 18 	mov  %i0, %o0
    88fc:	80 a2 20 00 	cmp  %o0, 0
    8900:	04 40 00 17 	ble,pn   %icc, 895c <wake_cpus_in_node+0x11c>
    8904:	92 10 00 1d 	mov  %i5, %o1
    8908:	c2 07 a7 eb 	ld  [ %fp + 0x7eb ], %g1
    890c:	80 a0 40 19 	cmp  %g1, %i1
    8910:	92 10 20 03 	mov  3, %o1
    8914:	94 10 20 01 	mov  1, %o2
    8918:	96 10 20 00 	clr  %o3
    891c:	98 10 00 18 	mov  %i0, %o4
    8920:	1b 00 10 00 	sethi  %hi(0x400000), %o5
    8924:	02 6f ff dd 	be  %xcc, 8898 <wake_cpus_in_node+0x58>
    8928:	90 10 00 15 	mov  %l5, %o0
    892c:	c2 5d c0 00 	ldx  [ %l7 ], %g1
    8930:	7f ff fb 3c 	call  7620 <ofw_call>
    8934:	c2 73 a8 af 	stx  %g1, [ %sp + 0x8af ]
    8938:	7f ff fc 0a 	call  7960 <ofw_get_peer_node>
    893c:	90 10 00 18 	mov  %i0, %o0
    8940:	82 02 3f ff 	add  %o0, -1, %g1
    8944:	80 a0 7f fd 	cmp  %g1, -3
    8948:	08 4f ff da 	bleu  %icc, 88b0 <wake_cpus_in_node+0x70>
    894c:	b0 10 00 08 	mov  %o0, %i0
    8950:	b1 3c 20 00 	sra  %l0, 0, %i0
    8954:	81 cf e0 08 	rett  %i7 + 8
    8958:	01 00 00 00 	nop 
    895c:	94 10 00 14 	mov  %l4, %o2
    8960:	96 10 20 04 	mov  4, %o3
    8964:	7f ff fc 4f 	call  7aa0 <ofw_get_property>
    8968:	90 10 00 18 	mov  %i0, %o0
    896c:	80 a2 20 00 	cmp  %o0, 0
    8970:	14 4f ff e7 	bg  %icc, 890c <wake_cpus_in_node+0xcc>
    8974:	c2 07 a7 eb 	ld  [ %fp + 0x7eb ], %g1
    8978:	92 10 00 1c 	mov  %i4, %o1
    897c:	94 10 00 14 	mov  %l4, %o2
    8980:	96 10 20 04 	mov  4, %o3
    8984:	7f ff fc 47 	call  7aa0 <ofw_get_property>
    8988:	90 10 00 18 	mov  %i0, %o0
    898c:	80 a2 20 00 	cmp  %o0, 0
    8990:	14 4f ff df 	bg  %icc, 890c <wake_cpus_in_node+0xcc>
    8994:	c2 07 a7 eb 	ld  [ %fp + 0x7eb ], %g1
    8998:	10 6f ff c0 	b  %xcc, 8898 <wake_cpus_in_node+0x58>
    899c:	01 00 00 00 	nop 

00000000000089a0 <ofw_cpu>:
    89a0:	9d e3 bb 40 	save  %sp, -1216, %sp
    89a4:	84 10 20 00 	clr  %g2
    89a8:	c4 d8 89 40 	ldxa  [ %g2 ] #ASI_UPA_CONFIG, %g2
    89ac:	03 00 00 26 	sethi  %hi(0x9800), %g1
    89b0:	c6 10 61 50 	lduh  [ %g1 + 0x150 ], %g3	! 9950 <mid_mask>
    89b4:	11 00 00 24 	sethi  %hi(0x9000), %o0
    89b8:	85 30 b0 11 	srlx  %g2, 0x11, %g2
    89bc:	90 12 22 28 	or  %o0, 0x228, %o0
    89c0:	7f ff fc 98 	call  7c20 <ofw_find_device>
    89c4:	aa 08 80 03 	and  %g2, %g3, %l5
    89c8:	82 02 3f ff 	add  %o0, -1, %g1
    89cc:	80 a0 7f fd 	cmp  %g1, -3
    89d0:	38 40 00 35 	bgu,a,pn   %icc, 8aa4 <ofw_cpu+0x104>
    89d4:	11 00 00 23 	sethi  %hi(0x8c00), %o0
    89d8:	7f ff fb f2 	call  79a0 <ofw_get_child_node>
    89dc:	91 32 20 00 	srl  %o0, 0, %o0
    89e0:	a3 32 20 00 	srl  %o0, 0, %l1
    89e4:	a0 10 00 08 	mov  %o0, %l0
    89e8:	92 10 00 15 	mov  %l5, %o1
    89ec:	7f ff ff 95 	call  8840 <wake_cpus_in_node>
    89f0:	90 10 00 11 	mov  %l1, %o0
    89f4:	82 04 3f ff 	add  %l0, -1, %g1
    89f8:	80 a0 7f fd 	cmp  %g1, -3
    89fc:	18 40 00 28 	bgu,pn   %icc, 8a9c <ofw_cpu+0xfc>
    8a00:	b0 10 00 08 	mov  %o0, %i0
    8a04:	03 00 00 24 	sethi  %hi(0x9000), %g1
    8a08:	05 00 00 24 	sethi  %hi(0x9000), %g2
    8a0c:	a8 10 62 80 	or  %g1, 0x280, %l4
    8a10:	a6 10 a2 88 	or  %g2, 0x288, %l3
    8a14:	10 68 00 08 	b  %xcc, 8a34 <ofw_cpu+0x94>
    8a18:	a4 07 a3 ef 	add  %fp, 0x3ef, %l2
    8a1c:	7f ff fb d1 	call  7960 <ofw_get_peer_node>
    8a20:	90 10 00 11 	mov  %l1, %o0
    8a24:	82 02 3f ff 	add  %o0, -1, %g1
    8a28:	80 a0 7f fd 	cmp  %g1, -3
    8a2c:	18 40 00 1c 	bgu,pn   %icc, 8a9c <ofw_cpu+0xfc>
    8a30:	a3 32 20 00 	srl  %o0, 0, %l1
    8a34:	92 10 00 14 	mov  %l4, %o1
    8a38:	94 10 00 12 	mov  %l2, %o2
    8a3c:	96 10 24 00 	mov  0x400, %o3
    8a40:	7f ff fc 18 	call  7aa0 <ofw_get_property>
    8a44:	90 10 00 11 	mov  %l1, %o0
    8a48:	80 a2 20 00 	cmp  %o0, 0
    8a4c:	92 10 00 13 	mov  %l3, %o1
    8a50:	04 47 ff f3 	ble,pn   %icc, 8a1c <ofw_cpu+0x7c>
    8a54:	90 10 00 12 	mov  %l2, %o0
    8a58:	7f ff f9 72 	call  7020 <strcmp>
    8a5c:	01 00 00 00 	nop 
    8a60:	80 a2 20 00 	cmp  %o0, 0
    8a64:	12 4f ff ee 	bne  %icc, 8a1c <ofw_cpu+0x7c>
    8a68:	01 00 00 00 	nop 
    8a6c:	7f ff fb cd 	call  79a0 <ofw_get_child_node>
    8a70:	90 10 00 11 	mov  %l1, %o0
    8a74:	92 10 00 15 	mov  %l5, %o1
    8a78:	7f ff ff 72 	call  8840 <wake_cpus_in_node>
    8a7c:	91 32 20 00 	srl  %o0, 0, %o0
    8a80:	b0 06 00 08 	add  %i0, %o0, %i0
    8a84:	7f ff fb b7 	call  7960 <ofw_get_peer_node>
    8a88:	90 10 00 11 	mov  %l1, %o0
    8a8c:	82 02 3f ff 	add  %o0, -1, %g1
    8a90:	80 a0 7f fd 	cmp  %g1, -3
    8a94:	08 4f ff e8 	bleu  %icc, 8a34 <ofw_cpu+0x94>
    8a98:	a3 32 20 00 	srl  %o0, 0, %l1
    8a9c:	81 cf e0 08 	rett  %i7 + 8
    8aa0:	91 3a 20 00 	sra  %o0, 0, %o0
    8aa4:	7f ff fc 5f 	call  7c20 <ofw_find_device>
    8aa8:	90 12 20 78 	or  %o0, 0x78, %o0
    8aac:	10 6f ff cb 	b  %xcc, 89d8 <ofw_cpu+0x38>
    8ab0:	01 00 00 00 	nop 
    8ab4:	30 68 00 03 	b,a   %xcc, 8ac0 <write>
    8ab8:	01 00 00 00 	nop 
    8abc:	01 00 00 00 	nop 

0000000000008ac0 <write>:
    8ac0:	9d e3 bf 40 	save  %sp, -192, %sp
    8ac4:	80 a6 60 00 	cmp  %i1, 0
    8ac8:	04 40 00 19 	ble,pn   %icc, 8b2c <write+0x6c>
    8acc:	03 00 00 24 	sethi  %hi(0x9000), %g1
    8ad0:	a4 10 62 90 	or  %g1, 0x290, %l2	! 9290 <ofw+0x648>
    8ad4:	10 68 00 08 	b  %xcc, 8af4 <write+0x34>
    8ad8:	a0 10 20 00 	clr  %l0
    8adc:	90 10 00 11 	mov  %l1, %o0
    8ae0:	7f ff fb 90 	call  7920 <ofw_write>
    8ae4:	92 10 20 01 	mov  1, %o1
    8ae8:	80 a6 40 10 	cmp  %i1, %l0
    8aec:	04 40 00 10 	ble,pn   %icc, 8b2c <write+0x6c>
    8af0:	01 00 00 00 	nop 
    8af4:	c2 4e 00 10 	ldsb  [ %i0 + %l0 ], %g1
    8af8:	80 a0 60 0a 	cmp  %g1, 0xa
    8afc:	a2 06 00 10 	add  %i0, %l0, %l1
    8b00:	12 4f ff f7 	bne  %icc, 8adc <write+0x1c>
    8b04:	a0 04 20 01 	inc  %l0
    8b08:	90 10 00 12 	mov  %l2, %o0
    8b0c:	7f ff fb 85 	call  7920 <ofw_write>
    8b10:	92 10 20 01 	mov  1, %o1
    8b14:	90 10 00 11 	mov  %l1, %o0
    8b18:	7f ff fb 82 	call  7920 <ofw_write>
    8b1c:	92 10 20 01 	mov  1, %o1
    8b20:	80 a6 40 10 	cmp  %i1, %l0
    8b24:	34 4f ff f5 	bg,a   %icc, 8af8 <write+0x38>
    8b28:	c2 4e 00 10 	ldsb  [ %i0 + %l0 ], %g1
    8b2c:	81 cf e0 08 	rett  %i7 + 8
    8b30:	01 00 00 00 	nop 
    8b34:	30 68 00 03 	b,a   %xcc, 8b40 <halt>
    8b38:	01 00 00 00 	nop 
    8b3c:	01 00 00 00 	nop 

0000000000008b40 <halt>:
    8b40:	10 80 00 00 	b  8b40 <halt>
    8b44:	01 00 00 00 	nop 

0000000000008b48 <memcpy>:
    8b48:	96 10 00 08 	mov  %o0, %o3
    8b4c:	82 02 60 07 	add  %o1, 7, %g1
    8b50:	82 08 7f f8 	and  %g1, -8, %g1
    8b54:	80 a2 40 01 	cmp  %o1, %g1
    8b58:	02 60 00 0d 	be,pn   %xcc, 8b8c <memcpy+0x44>
    8b5c:	82 02 20 07 	add  %o0, 7, %g1
    8b60:	86 10 20 00 	clr  %g3
    8b64:	02 c2 80 08 	brz,pn   %o2, 8b84 <memcpy+0x3c>
    8b68:	84 10 20 00 	clr  %g2
    8b6c:	c2 08 c0 09 	ldub  [ %g3 + %o1 ], %g1
    8b70:	84 00 a0 01 	inc  %g2
    8b74:	80 a2 80 02 	cmp  %o2, %g2
    8b78:	c2 28 c0 08 	stb  %g1, [ %g3 + %o0 ]
    8b7c:	12 6f ff fc 	bne  %xcc, 8b6c <memcpy+0x24>
    8b80:	86 10 00 02 	mov  %g2, %g3
    8b84:	81 c3 e0 08 	retl 
    8b88:	90 10 00 0b 	mov  %o3, %o0
    8b8c:	82 08 7f f8 	and  %g1, -8, %g1
    8b90:	80 a2 00 01 	cmp  %o0, %g1
    8b94:	12 6f ff f4 	bne  %xcc, 8b64 <memcpy+0x1c>
    8b98:	86 10 20 00 	clr  %g3
    8b9c:	89 32 b0 03 	srlx  %o2, 3, %g4
    8ba0:	02 c1 00 09 	brz,pn   %g4, 8bc4 <memcpy+0x7c>
    8ba4:	8a 10 20 00 	clr  %g5
    8ba8:	85 28 f0 03 	sllx  %g3, 3, %g2
    8bac:	86 01 60 01 	add  %g5, 1, %g3
    8bb0:	c2 5a 40 02 	ldx  [ %o1 + %g2 ], %g1
    8bb4:	8a 10 00 03 	mov  %g3, %g5
    8bb8:	80 a1 00 03 	cmp  %g4, %g3
    8bbc:	12 6f ff fb 	bne  %xcc, 8ba8 <memcpy+0x60>
    8bc0:	c2 72 00 02 	stx  %g1, [ %o0 + %g2 ]
    8bc4:	94 0a a0 07 	and  %o2, 7, %o2
    8bc8:	02 f2 bf ef 	brz,pn   %o2, 8b84 <memcpy+0x3c>
    8bcc:	83 29 30 03 	sllx  %g4, 3, %g1
    8bd0:	84 10 20 00 	clr  %g2
    8bd4:	90 00 40 08 	add  %g1, %o0, %o0
    8bd8:	88 00 40 09 	add  %g1, %o1, %g4
    8bdc:	86 10 20 00 	clr  %g3
    8be0:	c2 08 80 04 	ldub  [ %g2 + %g4 ], %g1
    8be4:	c2 28 80 08 	stb  %g1, [ %g2 + %o0 ]
    8be8:	84 00 e0 01 	add  %g3, 1, %g2
    8bec:	80 a2 80 02 	cmp  %o2, %g2
    8bf0:	12 6f ff fc 	bne  %xcc, 8be0 <memcpy+0x98>
    8bf4:	86 10 00 02 	mov  %g2, %g3
    8bf8:	81 c3 e0 08 	retl 
    8bfc:	90 10 00 0b 	mov  %o3, %o0

0000000000008c00 <jump_to_kernel>:
    8c00:	81 43 e0 08 	membar  #StoreStore
    8c04:	81 df c0 00 	flush  %i7
    8c08:	a2 10 00 08 	mov  %o0, %l1
    8c0c:	90 10 00 09 	mov  %o1, %o0
    8c10:	92 10 00 0a 	mov  %o2, %o1
    8c14:	94 10 00 0b 	mov  %o3, %o2
    8c18:	81 c4 40 00 	jmp  %l1
    8c1c:	01 00 00 00 	nop 

0000000000008c20 <icache_flush>:
    8c20:	03 00 00 0f 	sethi  %hi(0x3c00), %g1
    8c24:	82 10 63 e0 	or  %g1, 0x3e0, %g1	! 3fe0 <start-0x20>
    8c28:	c0 f0 4c e0 	stxa  %g0, [ %g1 ] #ASI_IC_TAG
    8c2c:	81 43 e0 40 	membar  #Sync
    8c30:	82 a0 60 20 	subcc  %g1, 0x20, %g1
    8c34:	12 6f ff fe 	bne  %xcc, 8c2c <icache_flush+0xc>
    8c38:	c0 f0 4c e0 	stxa  %g0, [ %g1 ] #ASI_IC_TAG
    8c3c:	81 43 e0 40 	membar  #Sync
    8c40:	81 c3 e0 08 	retl 
    8c44:	01 00 00 00 	nop 

0000000000008c48 <ofw>:
    8c48:	9d e3 bf 80 	save  %sp, -128, %sp
    8c4c:	21 00 00 26 	sethi  %hi(0x9800), %l0
    8c50:	a0 14 21 70 	or  %l0, 0x170, %l0	! 9970 <ofw_cif>
    8c54:	e0 5c 00 00 	ldx  [ %l0 ], %l0
    8c58:	a3 51 80 00 	rdpr  %pstate, %l1
    8c5c:	a4 0c 7f f7 	and  %l1, -9, %l2
    8c60:	8d 94 a0 00 	wrpr  %l2, 0, %pstate
    8c64:	9f c4 00 00 	call  %l0
    8c68:	90 10 00 18 	mov  %i0, %o0
    8c6c:	8d 94 60 00 	wrpr  %l1, 0, %pstate
    8c70:	81 c7 e0 08 	ret 
    8c74:	91 ea 20 00 	restore  %o0, 0, %o0
    8c78:	2f 00 00 00 	sethi  %hi(0), %l7
    8c7c:	00 00 00 00 	illtrap  0
    8c80:	63 6f 6d 70 	call  ffffffff8dbe4240 <ofw_mmu+0xffffffff8dbda8c8>
    8c84:	61 74 69 62 	call  ffffffff85d2320c <ofw_mmu+0xffffffff85d19894>
    8c88:	6c 65 00 00 	call  ffffffffb1948c88 <ofw_mmu+0xffffffffb193f310>
    8c8c:	00 00 00 00 	illtrap  0
    8c90:	55 6e 61 62 	call  55ba1218 <ofw_mmu+0x55b978a0>
    8c94:	6c 65 20 74 	call  ffffffffb1950e64 <ofw_mmu+0xffffffffb19474ec>
    8c98:	6f 20 64 65 	call  ffffffffbc821e2c <ofw_mmu+0xffffffffbc8184b4>
    8c9c:	74 65 72 6d 	call  ffffffffd1965650 <ofw_mmu+0xffffffffd195bcd8>
    8ca0:	69 6e 65 20 	call  ffffffffa5ba2120 <ofw_mmu+0xffffffffa5b987a8>
    8ca4:	61 72 63 68 	call  ffffffff85ca1a44 <ofw_mmu+0xffffffff85c980cc>
    8ca8:	69 74 65 63 	call  ffffffffa5d22234 <ofw_mmu+0xffffffffa5d188bc>
    8cac:	74 75 72 65 	call  ffffffffd1d65640 <ofw_mmu+0xffffffffd1d5bcc8>
    8cb0:	2c 20 64 65 	unknown
    8cb4:	66 61 75 6c 	call  ffffffff99866264 <ofw_mmu+0xffffffff9985c8ec>
    8cb8:	74 3a 20 73 	call  ffffffffd0e90e84 <ofw_mmu+0xffffffffd0e8750c>
    8cbc:	75 6e 34 75 	call  ffffffffd5b95e90 <ofw_mmu+0xffffffffd5b8c518>
    8cc0:	2e 0a 00 00 	unknown
    8cc4:	00 00 00 00 	illtrap  0
    8cc8:	73 75 6e 34 	call  ffffffffcdd64598 <ofw_mmu+0xffffffffcdd5ac20>
    8ccc:	76 00 00 00 	call  ffffffffd8008ccc <ofw_mmu+0xffffffffd7fff354>
    8cd0:	45 72 72 6f 	call  15ca568c <ofw_mmu+0x15c9bd14>
    8cd4:	72 3a 20 75 	call  ffffffffc8e90ea8 <ofw_mmu+0xffffffffc8e87530>
    8cd8:	6e 61 62 6c 	call  ffffffffb9861688 <ofw_mmu+0xffffffffb9857d10>
    8cdc:	65 20 74 6f 	call  ffffffff94825e98 <ofw_mmu+0xffffffff9481c520>
    8ce0:	20 67 65 74 	bn,a,pn   %xcc, fffffffffffe22b0 <ofw_mmu+0xfffffffffffd8938>
    8ce4:	20 73 74 61 	bn,a,pn   %xcc, e5e68 <ofw_mmu+0xdc4f0>
    8ce8:	72 74 20 6f 	call  ffffffffc9d10ea4 <ofw_mmu+0xffffffffc9d0752c>
    8cec:	66 20 70 68 	call  ffffffff98824e8c <ofw_mmu+0xffffffff9881b514>
    8cf0:	79 73 69 63 	call  ffffffffe5ce327c <ofw_mmu+0xffffffffe5cd9904>
    8cf4:	61 6c 20 6d 	call  ffffffff85b10ea8 <ofw_mmu+0xffffffff85b07530>
    8cf8:	65 6d 6f 72 	call  ffffffff95b64ac0 <ofw_mmu+0xffffffff95b5b148>
    8cfc:	79 2e 0a 00 	call  ffffffffe4b8b4fc <ofw_mmu+0xffffffffe4b81b84>
    8d00:	45 72 72 6f 	call  15ca56bc <ofw_mmu+0x15c9bd44>
    8d04:	72 3a 20 75 	call  ffffffffc8e90ed8 <ofw_mmu+0xffffffffc8e87560>
    8d08:	6e 61 62 6c 	call  ffffffffb98616b8 <ofw_mmu+0xffffffffb9857d40>
    8d0c:	65 20 74 6f 	call  ffffffff94825ec8 <ofw_mmu+0xffffffff9481c550>
    8d10:	20 67 65 74 	bn,a,pn   %xcc, fffffffffffe22e0 <ofw_mmu+0xfffffffffffd8968>
    8d14:	20 6d 65 6d 	bn,a   %xcc, fffffffffff622c8 <ofw_mmu+0xfffffffffff58950>
    8d18:	6f 72 79 20 	call  ffffffffbdca7198 <ofw_mmu+0xffffffffbdc9d820>
    8d1c:	6d 61 70 2c 	call  ffffffffb5864dcc <ofw_mmu+0xffffffffb585b454>
    8d20:	20 68 61 6c 	bn,a   %xcc, 212d0 <ofw_mmu+0x17958>
    8d24:	74 69 6e 67 	call  ffffffffd1a646c0 <ofw_mmu+0xffffffffd1a5ad48>
    8d28:	2e 0a 00 00 	unknown
    8d2c:	00 00 00 00 	illtrap  0
    8d30:	45 72 72 6f 	call  15ca56ec <ofw_mmu+0x15c9bd74>
    8d34:	72 3a 20 6e 	call  ffffffffc8e90eec <ofw_mmu+0xffffffffc8e87574>
    8d38:	6f 20 6d 65 	call  ffffffffbc8242cc <ofw_mmu+0xffffffffbc81a954>
    8d3c:	6d 6f 72 79 	call  ffffffffb5be5720 <ofw_mmu+0xffffffffb5bdbda8>
    8d40:	20 64 65 74 	bn,a,pn   %xcc, fffffffffff22310 <ofw_mmu+0xfffffffffff18998>
    8d44:	65 63 74 65 	call  ffffffff958e5ed8 <ofw_mmu+0xffffffff958dc560>
    8d48:	64 2c 20 68 	call  ffffffff90b10ee8 <ofw_mmu+0xffffffff90b07570>
    8d4c:	61 6c 74 69 	call  ffffffff85b25ef0 <ofw_mmu+0xffffffff85b1c578>
    8d50:	6e 67 2e 0a 	call  ffffffffb99d4578 <ofw_mmu+0xffffffffb99cac00>
    8d54:	00 00 00 00 	illtrap  0
    8d58:	46 61 69 6c 	call  19863308 <ofw_mmu+0x19859990>
    8d5c:	65 64 20 74 	call  ffffffff95910f2c <ofw_mmu+0xffffffff959075b4>
    8d60:	6f 20 6d 61 	call  ffffffffbc8242e4 <ofw_mmu+0xffffffffbc81a96c>
    8d64:	70 20 72 61 	call  ffffffffc08256e8 <ofw_mmu+0xffffffffc081bd70>
    8d68:	6d 64 69 73 	call  ffffffffb5923334 <ofw_mmu+0xffffffffb59199bc>
    8d6c:	6b 2e 0a 00 	call  ffffffffacb8b56c <ofw_mmu+0xffffffffacb81bf4>
    8d70:	0a 53 79 73 	bcs,pn   %icc, e733c <ofw_mmu+0xdd9c4>
    8d74:	74 65 6d 20 	call  ffffffffd19641f4 <ofw_mmu+0xffffffffd195a87c>
    8d78:	69 6e 66 6f 	call  ffffffffa5ba2734 <ofw_mmu+0xffffffffa5b98dbc>
    8d7c:	0a 00 00 00 	unknown
    8d80:	20 6d 65 6d 	bn,a   %xcc, fffffffffff62334 <ofw_mmu+0xfffffffffff589bc>
    8d84:	6f 72 79 3a 	call  ffffffffbdca726c <ofw_mmu+0xffffffffbdc9d8f4>
    8d88:	20 25 64 4d 	unknown
    8d8c:	20 73 74 61 	bn,a,pn   %xcc, e5f10 <ofw_mmu+0xdc598>
    8d90:	72 74 69 6e 	call  ffffffffc9d23348 <ofw_mmu+0xffffffffc9d199d0>
    8d94:	67 20 61 74 	call  ffffffff9c821364 <ofw_mmu+0xffffffff9c8179ec>
    8d98:	20 25 50 0a 	unknown
    8d9c:	00 00 00 00 	illtrap  0
    8da0:	0a 4d 65 6d 	bcs  %icc, fffffffffff62354 <ofw_mmu+0xfffffffffff589dc>
    8da4:	6f 72 79 20 	call  ffffffffbdca7224 <ofw_mmu+0xffffffffbdc9d8ac>
    8da8:	73 74 61 74 	call  ffffffffcdd21378 <ofw_mmu+0xffffffffcdd17a00>
    8dac:	69 73 74 69 	call  ffffffffa5ce5f50 <ofw_mmu+0xffffffffa5cdc5d8>
    8db0:	63 73 0a 00 	call  ffffffff8dccb5b0 <ofw_mmu+0xffffffff8dcc1c38>
    8db4:	00 00 00 00 	illtrap  0
    8db8:	20 6b 65 72 	bn,a   %xcc, e2380 <ofw_mmu+0xd8a08>
    8dbc:	6e 65 6c 20 	call  ffffffffb9963e3c <ofw_mmu+0xffffffffb995a4c4>
    8dc0:	65 6e 74 72 	call  ffffffff95ba5f88 <ofw_mmu+0xffffffff95b9c610>
    8dc4:	79 20 70 6f 	call  ffffffffe4824f80 <ofw_mmu+0xffffffffe481b608>
    8dc8:	69 6e 74 20 	call  ffffffffa5ba5e48 <ofw_mmu+0xffffffffa5b9c4d0>
    8dcc:	61 74 20 25 	call  ffffffff85d10e60 <ofw_mmu+0xffffffff85d074e8>
    8dd0:	50 0a 00 00 	call  40288dd0 <ofw_mmu+0x4027f458>
    8dd4:	00 00 00 00 	illtrap  0
    8dd8:	20 25 50 3a 	unknown
    8ddc:	20 62 6f 6f 	bn,a,pn   %xcc, a4b98 <ofw_mmu+0x9b220>
    8de0:	74 20 69 6e 	call  ffffffffd0823398 <ofw_mmu+0xffffffffd0819a20>
    8de4:	66 6f 20 73 	call  ffffffff99bd0fb0 <ofw_mmu+0xffffffff99bc7638>
    8de8:	74 72 75 63 	call  ffffffffd1ca6374 <ofw_mmu+0xffffffffd1c9c9fc>
    8dec:	74 75 72 65 	call  ffffffffd1d65780 <ofw_mmu+0xffffffffd1d5be08>
    8df0:	0a 00 00 00 	unknown
    8df4:	00 00 00 00 	illtrap  0
    8df8:	20 25 50 3a 	unknown
    8dfc:	20 25 73 20 	unknown
    8e00:	69 6d 61 67 	call  ffffffffa5b6139c <ofw_mmu+0xffffffffa5b57a24>
    8e04:	65 20 28 73 	call  ffffffff94812fd0 <ofw_mmu+0xffffffff94809658>
    8e08:	69 7a 65 20 	call  ffffffffa5ea2288 <ofw_mmu+0xffffffffa5e98910>
    8e0c:	25 64 20 62 	fblg,a,pn   %fcc2, fffffffffff10f94 <ofw_mmu+0xfffffffffff0761c>
    8e10:	79 74 65 73 	call  ffffffffe5d223dc <ofw_mmu+0xffffffffe5d18a64>
    8e14:	29 0a 00 00 	sethi  %hi(0x28000000), %l4
    8e18:	53 6b 69 70 	call  4dae33d8 <ofw_mmu+0x4dad9a60>
    8e1c:	70 69 6e 67 	call  ffffffffc1a647b8 <ofw_mmu+0xffffffffc1a5ae40>
    8e20:	20 73 75 70 	bn,a,pn   %xcc, e63e0 <ofw_mmu+0xdca68>
    8e24:	65 72 66 6c 	call  ffffffff95ca27d4 <ofw_mmu+0xffffffff95c98e5c>
    8e28:	75 6f 75 73 	call  ffffffffd5be63f4 <ofw_mmu+0xffffffffd5bdca7c>
    8e2c:	20 63 6f 6d 	bn,a,pn   %xcc, e4be0 <ofw_mmu+0xdb268>
    8e30:	70 6f 6e 65 	call  ffffffffc1be47c4 <ofw_mmu+0xffffffffc1bdae4c>
    8e34:	6e 74 73 2e 	call  ffffffffb9d25aec <ofw_mmu+0xffffffffb9d1c174>
    8e38:	0a 00 00 00 	unknown
    8e3c:	00 00 00 00 	illtrap  0
    8e40:	53 6b 69 70 	call  4dae3400 <ofw_mmu+0x4dad9a88>
    8e44:	70 69 6e 67 	call  ffffffffc1a647e0 <ofw_mmu+0xffffffffc1a5ae68>
    8e48:	20 72 61 6d 	bn,a,pn   %xcc, a13fc <ofw_mmu+0x97a84>
    8e4c:	64 69 73 6b 	call  ffffffff91a65bf8 <ofw_mmu+0xffffffff91a5c280>
    8e50:	2e 0a 00 00 	unknown
    8e54:	00 00 00 00 	illtrap  0
    8e58:	0a 43 6f 70 	bcs,pn   %icc, e4c18 <ofw_mmu+0xdb2a0>
    8e5c:	79 69 6e 67 	call  ffffffffe5a647f8 <ofw_mmu+0xffffffffe5a5ae80>
    8e60:	20 72 61 6d 	bn,a,pn   %xcc, a1414 <ofw_mmu+0x97a9c>
    8e64:	64 69 73 6b 	call  ffffffff91a65c10 <ofw_mmu+0xffffffff91a5c298>
    8e68:	2e 2e 2e 00 	unknown
    8e6c:	00 00 00 00 	illtrap  0
    8e70:	64 6f 6e 65 	call  ffffffff91be4804 <ofw_mmu+0xffffffff91bdae8c>
    8e74:	2e 0a 00 00 	unknown
    8e78:	0a 43 6f 70 	bcs,pn   %icc, e4c38 <ofw_mmu+0xdb2c0>
    8e7c:	79 69 6e 67 	call  ffffffffe5a64818 <ofw_mmu+0xffffffffe5a5aea0>
    8e80:	20 62 6f 6f 	bn,a,pn   %xcc, a4c3c <ofw_mmu+0x9b2c4>
    8e84:	74 69 6e 66 	call  ffffffffd1a6481c <ofw_mmu+0xffffffffd1a5aea4>
    8e88:	6f 20 74 61 	call  ffffffffbc82600c <ofw_mmu+0xffffffffbc81c694>
    8e8c:	73 6b 73 0a 	call  ffffffffcdae5ab4 <ofw_mmu+0xffffffffcdadc13c>
    8e90:	00 00 00 00 	illtrap  0
    8e94:	00 00 00 00 	illtrap  0
    8e98:	20 25 73 2e 	unknown
    8e9c:	2e 2e 00 00 	unknown
    8ea0:	0a 43 6f 70 	bcs,pn   %icc, e4c60 <ofw_mmu+0xdb2e8>
    8ea4:	79 69 6e 67 	call  ffffffffe5a64840 <ofw_mmu+0xffffffffe5a5aec8>
    8ea8:	20 6b 65 72 	bn,a   %xcc, e2470 <ofw_mmu+0xd8af8>
    8eac:	6e 65 6c 2e 	call  ffffffffb9963f64 <ofw_mmu+0xffffffffb995a5ec>
    8eb0:	2e 2e 00 00 	unknown
    8eb4:	00 00 00 00 	illtrap  0
    8eb8:	0a 43 61 6e 	bcs,pn   %icc, e1470 <ofw_mmu+0xd7af8>
    8ebc:	6f 6e 69 7a 	call  ffffffffbdba34a4 <ofw_mmu+0xffffffffbdb99b2c>
    8ec0:	69 6e 67 20 	call  ffffffffa5ba2b40 <ofw_mmu+0xffffffffa5b991c8>
    8ec4:	4f 70 65 6e 	call  3dc2247c <ofw_mmu+0x3dc18b04>
    8ec8:	46 69 72 6d 	call  19a6587c <ofw_mmu+0x19a5bf04>
    8ecc:	77 61 72 65 	call  ffffffffdd865860 <ofw_mmu+0xffffffffdd85bee8>
    8ed0:	20 64 65 76 	bn,a,pn   %xcc, fffffffffff224a8 <ofw_mmu+0xfffffffffff18b30>
    8ed4:	69 63 65 20 	call  ffffffffa58e2354 <ofw_mmu+0xffffffffa58d89dc>
    8ed8:	74 72 65 65 	call  ffffffffd1ca246c <ofw_mmu+0xffffffffd1c98af4>
    8edc:	2e 2e 2e 00 	unknown
    8ee0:	55 6e 6b 6e 	call  55ba3c98 <ofw_mmu+0x55b9a320>
    8ee4:	6f 77 6e 20 	call  ffffffffbdde4764 <ofw_mmu+0xffffffffbdddadec>
    8ee8:	61 72 63 68 	call  ffffffff85ca1c88 <ofw_mmu+0xffffffff85c98310>
    8eec:	69 74 65 63 	call  ffffffffa5d22478 <ofw_mmu+0xffffffffa5d18b00>
    8ef0:	74 75 72 65 	call  ffffffffd1d65884 <ofw_mmu+0xffffffffd1d5bf0c>
    8ef4:	2e 0a 00 00 	unknown
    8ef8:	0a 42 6f 6f 	bcs,pn   %icc, a4cb4 <ofw_mmu+0x9b33c>
    8efc:	74 69 6e 67 	call  ffffffffd1a64898 <ofw_mmu+0xffffffffd1a5af20>
    8f00:	20 74 68 65 	bn,a,pn   %xcc, fffffffffff23094 <ofw_mmu+0xfffffffffff1971c>
    8f04:	20 6b 65 72 	bn,a   %xcc, e24cc <ofw_mmu+0xd8b54>
    8f08:	6e 65 6c 2e 	call  ffffffffb9963fc0 <ofw_mmu+0xffffffffb995a648>
    8f0c:	2e 2e 0a 00 	unknown
    8f10:	30 2e 33 2e 	unknown
    8f14:	30 00 00 00 	unknown
    8f18:	2c 20 72 65 	unknown
    8f1c:	76 69 73 69 	call  ffffffffd9a65cc0 <ofw_mmu+0xffffffffd9a5c348>
    8f20:	6f 6e 20 34 	call  ffffffffbdb90ff0 <ofw_mmu+0xffffffffbdb87678>
    8f24:	36 36 33 00 	unknown
    8f28:	0a 42 75 69 	bcs,pn   %icc, a64cc <ofw_mmu+0x9cb54>
    8f2c:	6c 74 20 6f 	call  ffffffffb1d110e8 <ofw_mmu+0xffffffffb1d07770>
    8f30:	6e 20 32 30 	call  ffffffffb88157f0 <ofw_mmu+0xffffffffb880be78>
    8f34:	30 39 2d 31 	unknown
    8f38:	30 2d 30 38 	unknown
    8f3c:	20 31 31 3a 	unknown
    8f40:	34 35 3a 32 	unknown
    8f44:	31 00 00 00 	sethi  %hi(0), %i0
    8f48:	30 78 00 00 	b,a   %xcc, 8f48 <ofw+0x300>
    8f4c:	00 00 00 00 	illtrap  0
    8f50:	71 75 69 65 	call  ffffffffc5d634e4 <ofw_mmu+0xffffffffc5d59b6c>
    8f54:	73 63 65 00 	call  ffffffffcd8e2354 <ofw_mmu+0xffffffffcd8d89dc>
    8f58:	63 61 6c 6c 	call  ffffffff8d864108 <ofw_mmu+0xffffffff8d85a790>
    8f5c:	2d 6d 65 74 	fbg,a   %fcc2, fffffffffff6252c <ofw_mmu+0xfffffffffff58bb4>
    8f60:	68 6f 64 00 	call  ffffffffa1be1f60 <ofw_mmu+0xffffffffa1bd85e8>
    8f64:	00 00 00 00 	illtrap  0
    8f68:	6d 61 70 00 	call  ffffffffb5864f68 <ofw_mmu+0xffffffffb585b5f0>
    8f6c:	00 00 00 00 	illtrap  0
    8f70:	63 6c 61 69 	call  ffffffff8db21514 <ofw_mmu+0xffffffff8db17b9c>
    8f74:	6d 00 00 00 	call  ffffffffb4008f74 <ofw_mmu+0xffffffffb3fff5fc>
    8f78:	45 72 72 6f 	call  15ca5934 <ofw_mmu+0x15c9bfbc>
    8f7c:	72 3a 20 6d 	call  ffffffffc8e91130 <ofw_mmu+0xffffffffc8e877b8>
    8f80:	65 6d 6f 72 	call  ffffffff95b64d48 <ofw_mmu+0xffffffff95b5b3d0>
    8f84:	79 20 6d 65 	call  ffffffffe4824518 <ofw_mmu+0xffffffffe481aba0>
    8f88:	74 68 6f 64 	call  ffffffffd1a24d18 <ofw_mmu+0xffffffffd1a1b3a0>
    8f8c:	20 63 6c 61 	bn,a,pn   %xcc, e4110 <ofw_mmu+0xda798>
    8f90:	69 6d 28 29 	call  ffffffffa5b53034 <ofw_mmu+0xffffffffa5b496bc>
    8f94:	20 66 61 69 	bn,a,pn   %xcc, fffffffffffa1538 <ofw_mmu+0xfffffffffff97bc0>
    8f98:	6c 65 64 2c 	call  ffffffffb1962048 <ofw_mmu+0xffffffffb19586d0>
    8f9c:	20 68 61 6c 	bn,a   %xcc, 2154c <ofw_mmu+0x17bd4>
    8fa0:	74 69 6e 67 	call  ffffffffd1a6493c <ofw_mmu+0xffffffffd1a5afc4>
    8fa4:	2e 0a 00 00 	unknown
    8fa8:	45 72 72 6f 	call  15ca5964 <ofw_mmu+0x15c9bfec>
    8fac:	72 3a 20 4d 	call  ffffffffc8e910e0 <ofw_mmu+0xffffffffc8e87768>
    8fb0:	4d 55 20 6d 	call  35551164 <ofw_mmu+0x355477ec>
    8fb4:	65 74 68 6f 	call  ffffffff95d23170 <ofw_mmu+0xffffffff95d197f8>
    8fb8:	64 20 63 6c 	call  ffffffff90821d68 <ofw_mmu+0xffffffff908183f0>
    8fbc:	61 69 6d 28 	call  ffffffff85a6445c <ofw_mmu+0xffffffff85a5aae4>
    8fc0:	29 20 66 61 	sethi  %hi(0x81998400), %l4
    8fc4:	69 6c 65 64 	call  ffffffffa5b22554 <ofw_mmu+0xffffffffa5b18bdc>
    8fc8:	2c 20 68 61 	unknown
    8fcc:	6c 74 69 6e 	call  ffffffffb1d23584 <ofw_mmu+0xffffffffb1d19c0c>
    8fd0:	67 2e 0a 00 	call  ffffffff9cb8b7d0 <ofw_mmu+0xffffffff9cb81e58>
    8fd4:	00 00 00 00 	illtrap  0
    8fd8:	74 72 61 6e 	call  ffffffffd1ca1590 <ofw_mmu+0xffffffffd1c97c18>
    8fdc:	73 6c 61 74 	call  ffffffffcdb215ac <ofw_mmu+0xffffffffcdb17c34>
    8fe0:	65 00 00 00 	call  ffffffff94008fe0 <ofw_mmu+0xffffffff93fff668>
    8fe4:	00 00 00 00 	illtrap  0
    8fe8:	45 72 72 6f 	call  15ca59a4 <ofw_mmu+0x15c9c02c>
    8fec:	72 3a 20 4d 	call  ffffffffc8e91120 <ofw_mmu+0xffffffffc8e877a8>
    8ff0:	4d 55 20 6d 	call  355511a4 <ofw_mmu+0x3554782c>
    8ff4:	65 74 68 6f 	call  ffffffff95d231b0 <ofw_mmu+0xffffffff95d19838>
    8ff8:	64 20 74 72 	call  ffffffff908261c0 <ofw_mmu+0xffffffff9081c848>
    8ffc:	61 6e 73 6c 	call  ffffffff85ba5dac <ofw_mmu+0xffffffff85b9c434>
    9000:	61 74 65 28 	call  ffffffff85d224a0 <ofw_mmu+0xffffffff85d18b28>
    9004:	29 20 66 61 	sethi  %hi(0x81998400), %l4
    9008:	69 6c 65 64 	call  ffffffffa5b22598 <ofw_mmu+0xffffffffa5b18c20>
    900c:	2c 20 68 61 	unknown
    9010:	6c 74 69 6e 	call  ffffffffb1d235c8 <ofw_mmu+0xffffffffb1d19c50>
    9014:	67 2e 0a 00 	call  ffffffff9cb8b814 <ofw_mmu+0xffffffff9cb81e9c>
    9018:	77 72 69 74 	call  ffffffffddca35e8 <ofw_mmu+0xffffffffddc99c70>
    901c:	65 00 00 00 	call  ffffffff9400901c <ofw_mmu+0xffffffff93fff6a4>
    9020:	70 65 65 72 	call  ffffffffc19625e8 <ofw_mmu+0xffffffffc1958c70>
    9024:	00 00 00 00 	illtrap  0
    9028:	63 68 69 6c 	call  ffffffff8da235d8 <ofw_mmu+0xffffffff8da19c60>
    902c:	64 00 00 00 	call  ffffffff9000902c <ofw_mmu+0xffffffff8ffff6b4>
    9030:	70 61 63 6b 	call  ffffffffc1861ddc <ofw_mmu+0xffffffffc1858464>
    9034:	61 67 65 2d 	call  ffffffff859e24e8 <ofw_mmu+0xffffffff859d8b70>
    9038:	74 6f 2d 70 	call  ffffffffd1bd45f8 <ofw_mmu+0xffffffffd1bcac80>
    903c:	61 74 68 00 	call  ffffffff85d2303c <ofw_mmu+0xffffffff85d196c4>
    9040:	6e 65 78 74 	call  ffffffffb9967210 <ofw_mmu+0xffffffffb995d898>
    9044:	70 72 6f 70 	call  ffffffffc1ca4e04 <ofw_mmu+0xffffffffc1c9b48c>
    9048:	00 00 00 00 	illtrap  0
    904c:	00 00 00 00 	illtrap  0
    9050:	67 65 74 70 	call  ffffffff9d966210 <ofw_mmu+0xffffffff9d95c898>
    9054:	72 6f 70 6c 	call  ffffffffc9be5204 <ofw_mmu+0xffffffffc9bdb88c>
    9058:	65 6e 00 00 	call  ffffffff95b89058 <ofw_mmu+0xffffffff95b7f6e0>
    905c:	00 00 00 00 	illtrap  0
    9060:	67 65 74 70 	call  ffffffff9d966220 <ofw_mmu+0xffffffff9d95c8a8>
    9064:	72 6f 70 00 	call  ffffffffc9be5064 <ofw_mmu+0xffffffffc9bdb6ec>
    9068:	23 73 69 7a 	fbne,a,pn   %fcc3, e3650 <ofw_mmu+0xd9cd8>
    906c:	65 2d 63 65 	call  ffffffff94b61e00 <ofw_mmu+0xffffffff94b58488>
    9070:	6c 6c 73 00 	call  ffffffffb1b25c70 <ofw_mmu+0xffffffffb1b1c2f8>
    9074:	00 00 00 00 	illtrap  0
    9078:	23 61 64 64 	fbne,a,pn   %fcc2, 62208 <ofw_mmu+0x58890>
    907c:	72 65 73 73 	call  ffffffffc9965e48 <ofw_mmu+0xffffffffc995c4d0>
    9080:	2d 63 65 6c 	fbg,a,pn   %fcc2, e2630 <ofw_mmu+0xd8cb8>
    9084:	6c 73 00 00 	call  ffffffffb1cc9084 <ofw_mmu+0xffffffffb1cbf70c>
    9088:	66 69 6e 64 	call  ffffffff99a64a18 <ofw_mmu+0xffffffff99a5b0a0>
    908c:	64 65 76 69 	call  ffffffff91966a30 <ofw_mmu+0xffffffff9195d0b8>
    9090:	63 65 00 00 	call  ffffffff8d949090 <ofw_mmu+0xffffffff8d93f718>
    9094:	00 00 00 00 	illtrap  0
    9098:	2f 63 68 6f 	fbu,a,pn   %fcc2, e3254 <ofw_mmu+0xd98dc>
    909c:	73 65 6e 00 	call  ffffffffcd96489c <ofw_mmu+0xffffffffcd95af24>
    90a0:	73 74 64 6f 	call  ffffffffcdd2225c <ofw_mmu+0xffffffffcdd188e4>
    90a4:	75 74 00 00 	call  ffffffffd5d090a4 <ofw_mmu+0xffffffffd5cff72c>
    90a8:	0d 0a 45 72 	sethi  %hi(0x2915c800), %g6
    90ac:	72 6f 72 3a 	call  ffffffffc9be5994 <ofw_mmu+0xffffffffc9bdc01c>
    90b0:	20 55 6e 61 	bn,a,pn   %icc, fffffffffff64a34 <ofw_mmu+0xfffffffffff5b0bc>
    90b4:	62 6c 65 20 	call  ffffffff89b22534 <ofw_mmu+0xffffffff89b18bbc>
    90b8:	74 6f 20 66 	call  ffffffffd1bd1250 <ofw_mmu+0xffffffffd1bc78d8>
    90bc:	69 6e 64 20 	call  ffffffffa5ba213c <ofw_mmu+0xffffffffa5b987c4>
    90c0:	2f 20 64 65 	sethi  %hi(0x81919400), %l7
    90c4:	76 69 63 65 	call  ffffffffd9a61e58 <ofw_mmu+0xffffffffd9a584e0>
    90c8:	2c 20 68 61 	unknown
    90cc:	6c 74 65 64 	call  ffffffffb1d2265c <ofw_mmu+0xffffffffb1d18ce4>
    90d0:	2e 0d 0a 00 	unknown
    90d4:	00 00 00 00 	illtrap  0
    90d8:	6d 6d 75 00 	call  ffffffffb5b664d8 <ofw_mmu+0xffffffffb5b5cb60>
    90dc:	00 00 00 00 	illtrap  0
    90e0:	0d 0a 45 72 	sethi  %hi(0x2915c800), %g6
    90e4:	72 6f 72 3a 	call  ffffffffc9be59cc <ofw_mmu+0xffffffffc9bdc054>
    90e8:	20 55 6e 61 	bn,a,pn   %icc, fffffffffff64a6c <ofw_mmu+0xfffffffffff5b0f4>
    90ec:	62 6c 65 20 	call  ffffffff89b2256c <ofw_mmu+0xffffffff89b18bf4>
    90f0:	74 6f 20 67 	call  ffffffffd1bd128c <ofw_mmu+0xffffffffd1bc7914>
    90f4:	65 74 20 6d 	call  ffffffff95d112a8 <ofw_mmu+0xffffffff95d07930>
    90f8:	6d 75 20 70 	call  ffffffffb5d512b8 <ofw_mmu+0xffffffffb5d47940>
    90fc:	72 6f 70 65 	call  ffffffffc9be5290 <ofw_mmu+0xffffffffc9bdb918>
    9100:	72 74 79 2c 	call  ffffffffc9d275b0 <ofw_mmu+0xffffffffc9d1dc38>
    9104:	20 68 61 6c 	bn,a   %xcc, 216b4 <ofw_mmu+0x17d3c>
    9108:	74 65 64 2e 	call  ffffffffd19621c0 <ofw_mmu+0xffffffffd1958848>
    910c:	0d 0a 00 00 	sethi  %hi(0x28000000), %g6
    9110:	6d 65 6d 6f 	call  ffffffffb59646cc <ofw_mmu+0xffffffffb595ad54>
    9114:	72 79 00 00 	call  ffffffffc9e49114 <ofw_mmu+0xffffffffc9e3f79c>
    9118:	0d 0a 45 72 	sethi  %hi(0x2915c800), %g6
    911c:	72 6f 72 3a 	call  ffffffffc9be5a04 <ofw_mmu+0xffffffffc9bdc08c>
    9120:	20 55 6e 61 	bn,a,pn   %icc, fffffffffff64aa4 <ofw_mmu+0xfffffffffff5b12c>
    9124:	62 6c 65 20 	call  ffffffff89b225a4 <ofw_mmu+0xffffffff89b18c2c>
    9128:	74 6f 20 67 	call  ffffffffd1bd12c4 <ofw_mmu+0xffffffffd1bc794c>
    912c:	65 74 20 6d 	call  ffffffff95d112e0 <ofw_mmu+0xffffffff95d07968>
    9130:	65 6d 6f 72 	call  ffffffff95b64ef8 <ofw_mmu+0xffffffff95b5b580>
    9134:	79 20 70 72 	call  ffffffffe48252fc <ofw_mmu+0xffffffffe481b984>
    9138:	6f 70 65 72 	call  ffffffffbdc22700 <ofw_mmu+0xffffffffbdc18d88>
    913c:	74 79 2c 20 	call  ffffffffd1e541bc <ofw_mmu+0xffffffffd1e4a844>
    9140:	68 61 6c 74 	call  ffffffffa1864310 <ofw_mmu+0xffffffffa185a998>
    9144:	65 64 2e 0d 	call  ffffffff95914978 <ofw_mmu+0xffffffff9590b000>
    9148:	0a 00 00 00 	unknown
    914c:	00 00 00 00 	illtrap  0
    9150:	2f 6d 65 6d 	fbu,a   %fcc2, fffffffffff62704 <ofw_mmu+0xfffffffffff58d8c>
    9154:	6f 72 79 00 	call  ffffffffbdca7554 <ofw_mmu+0xffffffffbdc9dbdc>
    9158:	0d 0a 45 72 	sethi  %hi(0x2915c800), %g6
    915c:	72 6f 72 3a 	call  ffffffffc9be5a44 <ofw_mmu+0xffffffffc9bdc0cc>
    9160:	20 55 6e 61 	bn,a,pn   %icc, fffffffffff64ae4 <ofw_mmu+0xfffffffffff5b16c>
    9164:	62 6c 65 20 	call  ffffffff89b225e4 <ofw_mmu+0xffffffff89b18c6c>
    9168:	74 6f 20 66 	call  ffffffffd1bd1300 <ofw_mmu+0xffffffffd1bc7988>
    916c:	69 6e 64 20 	call  ffffffffa5ba21ec <ofw_mmu+0xffffffffa5b98874>
    9170:	2f 6d 65 6d 	fbu,a   %fcc2, fffffffffff62724 <ofw_mmu+0xfffffffffff58dac>
    9174:	6f 72 79 20 	call  ffffffffbdca75f4 <ofw_mmu+0xffffffffbdc9dc7c>
    9178:	64 65 76 69 	call  ffffffff91966b1c <ofw_mmu+0xffffffff9195d1a4>
    917c:	63 65 2c 20 	call  ffffffff8d9541fc <ofw_mmu+0xffffffff8d94a884>
    9180:	68 61 6c 74 	call  ffffffffa1864350 <ofw_mmu+0xffffffffa185a9d8>
    9184:	65 64 2e 0d 	call  ffffffff959149b8 <ofw_mmu+0xffffffff9590b040>
    9188:	0a 00 00 00 	unknown
    918c:	00 00 00 00 	illtrap  0
    9190:	2f 61 6c 69 	fbu,a,pn   %fcc2, 64334 <ofw_mmu+0x5a9bc>
    9194:	61 73 65 73 	call  ffffffff85ce2760 <ofw_mmu+0xffffffff85cd8de8>
    9198:	00 00 00 00 	illtrap  0
    919c:	00 00 00 00 	illtrap  0
    91a0:	0d 0a 45 72 	sethi  %hi(0x2915c800), %g6
    91a4:	72 6f 72 3a 	call  ffffffffc9be5a8c <ofw_mmu+0xffffffffc9bdc114>
    91a8:	20 55 6e 61 	bn,a,pn   %icc, fffffffffff64b2c <ofw_mmu+0xfffffffffff5b1b4>
    91ac:	62 6c 65 20 	call  ffffffff89b2262c <ofw_mmu+0xffffffff89b18cb4>
    91b0:	74 6f 20 66 	call  ffffffffd1bd1348 <ofw_mmu+0xffffffffd1bc79d0>
    91b4:	69 6e 64 20 	call  ffffffffa5ba2234 <ofw_mmu+0xffffffffa5b988bc>
    91b8:	2f 61 6c 69 	fbu,a,pn   %fcc2, 6435c <ofw_mmu+0x5a9e4>
    91bc:	61 73 65 73 	call  ffffffff85ce2788 <ofw_mmu+0xffffffff85cd8e10>
    91c0:	20 64 65 76 	bn,a,pn   %xcc, fffffffffff22798 <ofw_mmu+0xfffffffffff18e20>
    91c4:	69 63 65 2c 	call  ffffffffa58e2674 <ofw_mmu+0xffffffffa58d8cfc>
    91c8:	20 68 61 6c 	bn,a   %xcc, 21778 <ofw_mmu+0x17e00>
    91cc:	74 65 64 2e 	call  ffffffffd1962284 <ofw_mmu+0xffffffffd195890c>
    91d0:	0d 0a 00 00 	sethi  %hi(0x28000000), %g6
    91d4:	00 00 00 00 	illtrap  0
    91d8:	73 63 72 65 	call  ffffffffcd8e5b6c <ofw_mmu+0xffffffffcd8dc1f4>
    91dc:	65 6e 00 00 	call  ffffffff95b891dc <ofw_mmu+0xffffffff95b7f864>
    91e0:	64 65 70 74 	call  ffffffff919653b0 <ofw_mmu+0xffffffff9195ba38>
    91e4:	68 00 00 00 	call  ffffffffa00091e4 <ofw_mmu+0xffffffff9ffff86c>
    91e8:	6f 70 65 6e 	call  ffffffffbdc227a0 <ofw_mmu+0xffffffffbdc18e28>
    91ec:	00 00 00 00 	illtrap  0
    91f0:	63 6f 6c 6f 	call  ffffffff8dbe43ac <ofw_mmu+0xffffffff8dbdaa34>
    91f4:	72 21 00 00 	call  ffffffffc88491f4 <ofw_mmu+0xffffffffc883f87c>
    91f8:	61 64 64 72 	call  ffffffff859223c0 <ofw_mmu+0xffffffff85918a48>
    91fc:	65 73 73 00 	call  ffffffff95ce5dfc <ofw_mmu+0xffffffff95cdc484>
    9200:	77 69 64 74 	call  ffffffffdda623d0 <ofw_mmu+0xffffffffdda58a58>
    9204:	68 00 00 00 	call  ffffffffa0009204 <ofw_mmu+0xffffffff9ffff88c>
    9208:	68 65 69 67 	call  ffffffffa19637a4 <ofw_mmu+0xffffffffa1959e2c>
    920c:	68 74 00 00 	call  ffffffffa1d0920c <ofw_mmu+0xffffffffa1cff894>
    9210:	6c 69 6e 65 	call  ffffffffb1a64ba4 <ofw_mmu+0xffffffffb1a5b22c>
    9214:	62 79 74 65 	call  ffffffff89e663a8 <ofw_mmu+0xffffffff89e5ca30>
    9218:	73 00 00 00 	call  ffffffffcc009218 <ofw_mmu+0xffffffffcbfff8a0>
    921c:	00 00 00 00 	illtrap  0
    9220:	72 65 67 00 	call  ffffffffc9962e20 <ofw_mmu+0xffffffffc99594a8>
    9224:	00 00 00 00 	illtrap  0
    9228:	2f 73 73 6d 	fbu,a,pn   %fcc3, e5fdc <ofw_mmu+0xdc664>
    922c:	40 30 2c 30 	call  c142ec <ofw_mmu+0xc0a974>
    9230:	00 00 00 00 	illtrap  0
    9234:	00 00 00 00 	illtrap  0
    9238:	64 65 76 69 	call  ffffffff91966bdc <ofw_mmu+0xffffffff9195d264>
    923c:	63 65 5f 74 	call  ffffffff8d96100c <ofw_mmu+0xffffffff8d957694>
    9240:	79 70 65 00 	call  ffffffffe5c22640 <ofw_mmu+0xffffffffe5c18cc8>
    9244:	00 00 00 00 	illtrap  0
    9248:	63 70 75 00 	call  ffffffff8dc26648 <ofw_mmu+0xffffffff8dc1ccd0>
    924c:	00 00 00 00 	illtrap  0
    9250:	75 70 61 2d 	call  ffffffffd5c21704 <ofw_mmu+0xffffffffd5c17d8c>
    9254:	70 6f 72 74 	call  ffffffffc1be5c24 <ofw_mmu+0xffffffffc1bdc2ac>
    9258:	69 64 00 00 	call  ffffffffa5909258 <ofw_mmu+0xffffffffa58ff8e0>
    925c:	00 00 00 00 	illtrap  0
    9260:	70 6f 72 74 	call  ffffffffc1be5c30 <ofw_mmu+0xffffffffc1bdc2b8>
    9264:	69 64 00 00 	call  ffffffffa5909264 <ofw_mmu+0xffffffffa58ff8ec>
    9268:	63 70 75 69 	call  ffffffff8dc2680c <ofw_mmu+0xffffffff8dc1ce94>
    926c:	64 00 00 00 	call  ffffffff9000926c <ofw_mmu+0xffffffff8ffff8f4>
    9270:	53 55 4e 57 	call  4d55cbcc <ofw_mmu+0x4d553254>
    9274:	2c 73 74 61 	bneg,a,pn   %xcc, e63f8 <ofw_mmu+0xdca80>
    9278:	72 74 2d 63 	call  ffffffffc9d14804 <ofw_mmu+0xffffffffc9d0ae8c>
    927c:	70 75 00 00 	call  ffffffffc1d4927c <ofw_mmu+0xffffffffc1d3f904>
    9280:	6e 61 6d 65 	call  ffffffffb9864814 <ofw_mmu+0xffffffffb985ae9c>
    9284:	00 00 00 00 	illtrap  0
    9288:	63 6d 70 00 	call  ffffffff8db65288 <ofw_mmu+0xffffffff8db5b910>
    928c:	00 00 00 00 	illtrap  0
    9290:	0d 00 00 00 	sethi  %hi(0), %g6
    9294:	00 00 00 00 	illtrap  0

0000000000009298 <release>:
    9298:	00 00 00 00 	illtrap  0
    929c:	00 00 8f 10 	illtrap  0x8f10

00000000000092a0 <revision>:
    92a0:	00 00 00 00 	illtrap  0
    92a4:	00 00 8f 18 	illtrap  0x8f18

00000000000092a8 <timestamp>:
    92a8:	00 00 00 00 	illtrap  0
    92ac:	00 00 8f 28 	illtrap  0x8f28

00000000000092b0 <digits>:
    92b0:	30 31 32 33 	unknown
    92b4:	34 35 36 37 	unknown
    92b8:	38 39 61 62 	unknown
    92bc:	63 64 65 66 	call  ffffffff8d922854 <ofw_mmu+0xffffffff8d918edc>
    92c0:	00 00 00 00 	illtrap  0
    92c4:	00 00 00 00 	illtrap  0

00000000000092c8 <subarchitecture>:
	...

00000000000092c9 <architecture>:
    92c9:	00 00 00 00 	illtrap  0
    92cd:	00 00 00 00 	illtrap  0

00000000000092d0 <ballocs>:
	...

00000000000092d8 <name.964>:
	...

00000000000092f8 <path.963>:
	...

0000000000009400 <components>:
	...

0000000000009520 <bootinfo>:
	...

0000000000009950 <mid_mask>:
	...

0000000000009958 <ofw_aliases>:
    9958:	00 00 00 00 	illtrap  0

000000000000995c <ofw_chosen>:
    995c:	00 00 00 00 	illtrap  0

0000000000009960 <ofw_memory_prop>:
    9960:	00 00 00 00 	illtrap  0

0000000000009964 <ofw_stdout>:
    9964:	00 00 00 00 	illtrap  0

0000000000009968 <ofw_memory>:
    9968:	00 00 00 00 	illtrap  0

000000000000996c <ofw_root>:
    996c:	00 00 00 00 	illtrap  0

0000000000009970 <ofw_cif>:
	...

0000000000009978 <ofw_mmu>:
    9978:	00 00 00 00 	illtrap  0
